Certificate:
    Data:
        Version: 3 (0x2)
        Serial Number: 4 (0x4)
        Signature Algorithm: sha256WithRSAEncryption
        Issuer: C=FR, ST=France, O=Systerel, CN=S2OPC Century Certificate Authority for Tests/emailAddress=s2opc-support@systerel.fr
        Validity
            Not Before: Oct  3 09:29:31 2023 GMT
            Not After : Oct  2 09:29:31 2025 GMT
        Subject: C=FR, ST=France, L=Aix-en-Provence, O=Systerel, CN=S2OPC Demo Intermediate Client Authority for Tests
        Subject Public Key Info:
            Public Key Algorithm: rsaEncryption
                RSA Public-Key: (4096 bit)
                Modulus:
                    00:c9:61:39:08:50:58:8f:8b:af:99:75:f3:6e:24:
                    57:3a:d1:d7:e0:b3:ee:0b:7f:a3:38:fa:26:7f:6e:
                    96:b0:09:e4:38:e8:66:27:61:1c:18:6e:78:8c:e5:
                    4f:c0:a9:54:ed:5b:b7:91:c8:08:49:bd:00:7c:db:
                    54:5b:25:b0:4d:f0:41:9f:9b:b9:c3:56:90:4d:f7:
                    33:85:27:1d:64:6f:15:b4:90:06:bf:80:5b:44:d9:
                    a2:5a:3a:49:42:fc:12:4f:52:b0:e3:3a:ce:e8:ec:
                    f5:1d:51:bd:02:fb:c8:9f:ff:83:f5:a1:d9:2b:f0:
                    41:dd:ce:56:6f:1f:fb:bf:53:02:71:18:bd:99:4b:
                    48:17:bb:4a:c0:c9:f6:da:60:5d:f4:2c:e2:90:42:
                    49:86:c5:94:10:aa:92:b2:ca:87:7f:28:a2:aa:c6:
                    84:66:ee:89:37:1c:c8:b1:8c:f7:1b:44:f7:0d:2a:
                    c9:b9:ed:c5:ad:86:8d:36:c8:9c:4d:b8:8e:df:92:
                    b7:91:ad:dc:2a:42:c5:5d:79:d7:80:e2:3b:44:37:
                    f2:a0:c0:0b:1a:a5:7b:55:60:7a:62:d2:9b:ca:3d:
                    2e:6e:84:18:df:11:3a:d1:da:f0:ca:18:b9:9f:6c:
                    54:84:28:37:20:33:94:a0:1b:a2:7a:a5:e9:86:99:
                    b0:47:89:bd:6b:ee:7e:d0:c1:bb:2d:fa:6b:01:6a:
                    c1:4f:a6:a8:90:89:1e:8b:cd:1f:1c:7b:75:de:07:
                    6f:fd:e1:91:b3:89:87:4c:3c:ce:11:ef:2d:31:c1:
                    05:7b:14:f5:de:58:96:f4:4b:b5:8f:32:4e:5f:f8:
                    db:d0:78:68:6b:0b:b2:fa:4f:d0:70:16:19:20:4d:
                    18:55:ca:59:5b:94:1e:3a:6f:55:96:38:fb:71:87:
                    b8:de:16:b9:e9:cb:5d:58:45:fb:59:3d:40:e0:0b:
                    07:f1:3d:8d:f7:be:2c:a5:80:aa:5c:20:27:b4:50:
                    f1:40:ca:1b:27:56:be:c0:c8:3f:8a:62:31:14:53:
                    4d:e4:36:33:d2:51:28:13:6c:65:71:99:c7:1a:be:
                    29:77:49:cb:06:2c:bf:bb:97:98:84:f5:e4:f9:91:
                    13:7d:f2:f8:0b:c9:f5:7d:a0:8e:6b:40:fc:7b:20:
                    86:aa:a6:25:5e:d2:1b:4c:85:9c:69:60:3e:5a:3c:
                    60:b2:c5:fa:d9:58:55:ed:e5:cb:de:94:f6:ee:af:
                    ce:8d:74:d5:f8:32:dd:20:ea:57:39:9c:ec:b9:39:
                    2c:4d:2c:db:fc:6c:31:fd:c3:f3:fb:8e:23:b7:71:
                    4c:3d:a4:42:a3:ef:0c:07:ab:1d:e5:1a:e2:b9:29:
                    fc:61:e7
                Exponent: 65537 (0x10001)
        X509v3 extensions:
            X509v3 Subject Key Identifier: 
                87:D0:6C:50:C4:2D:5D:93:B5:E4:71:67:5E:25:76:AF:E8:B0:5F:05
            X509v3 Authority Key Identifier: 
                keyid:7A:46:CB:D2:2F:30:A4:FF:67:29:13:39:3F:9C:02:BF:03:D0:72:82

            X509v3 Basic Constraints: critical
                CA:TRUE
            X509v3 Key Usage: critical
                Digital Signature, Certificate Sign, CRL Sign
    Signature Algorithm: sha256WithRSAEncryption
         78:22:65:98:10:c1:5b:16:97:14:c8:a1:b0:5e:98:31:81:84:
         59:16:ad:1b:a6:f0:08:7a:c9:a8:fd:92:5d:7c:ed:05:4f:a7:
         a4:8f:a4:ed:65:52:f3:cc:46:dc:3e:ba:15:5c:a4:0f:01:77:
         39:3e:a0:d4:ff:fb:5c:b6:67:2a:73:dd:d9:6e:46:81:29:bd:
         35:ed:4d:10:31:2a:22:fa:54:48:d9:58:99:32:2f:15:f1:38:
         96:48:ec:bb:6d:0f:32:5f:23:fb:78:93:c5:e6:ca:e2:3f:4f:
         66:4d:95:72:0e:a9:9f:98:d0:67:ae:a7:2f:00:72:41:ad:2c:
         48:9a:34:c9:0b:6d:12:55:f8:9b:bb:28:88:84:66:fe:39:f7:
         e6:a0:0d:9e:8d:e5:39:d5:7e:7a:dd:c4:1f:75:dc:a0:d7:bb:
         a0:8a:85:84:c0:a6:74:f9:c0:35:d5:04:27:ad:ab:f9:38:81:
         d9:68:f5:ab:c7:4b:9b:50:3a:a1:e8:18:4b:e6:9b:a8:47:95:
         ef:cb:ee:2a:46:f6:77:ef:7a:7b:9a:71:f3:c8:85:da:75:ca:
         23:cd:2c:51:89:56:20:66:08:3f:18:43:7c:5b:45:9d:7a:c7:
         e3:85:df:d9:d3:34:db:63:2e:f3:83:74:d1:90:a7:56:44:14:
         ab:f9:d4:d5:09:8c:f5:54:ac:06:98:d1:5f:46:d0:16:aa:c6:
         da:77:5b:a4:f0:e7:ab:b6:bc:86:c7:a5:95:90:62:6b:38:b3:
         ac:ce:b3:16:b8:ed:f9:1a:21:bb:b2:d7:6e:bc:16:13:eb:cd:
         07:44:17:19:e2:3b:34:1f:78:4d:1a:36:88:14:54:52:d6:41:
         0a:d1:8b:ac:ef:9d:c4:20:0c:62:77:32:f8:77:7c:02:17:e9:
         1b:9d:a8:bc:2b:47:2f:e0:eb:b4:3f:50:2a:3a:93:fc:76:0f:
         bc:86:01:89:82:0d:8b:b4:69:ea:7f:bb:8e:58:98:08:41:a6:
         15:f8:b4:57:68:90:e3:1e:8b:28:08:5c:9f:a5:4b:15:b6:13:
         99:b1:99:33:78:09:eb:af:30:11:62:db:96:f8:03:b2:78:36:
         4b:5a:a6:a3:b0:1d:7e:3c:45:8a:13:8f:01:36:67:ea:5f:a1:
         92:72:1a:1a:d0:f5:b3:47:80:1d:b7:c7:f9:9f:61:b1:08:fc:
         e7:31:6d:cc:78:65:74:7b:83:63:8a:6b:cd:48:7b:ac:9b:21:
         45:99:63:e0:37:9b:76:70:70:0e:0b:6a:03:07:9a:fd:f9:fc:
         8e:1f:d0:cc:bc:b3:1b:4c:5a:70:8a:1e:7a:a4:07:9f:c3:48:
         c1:29:18:67:a4:44:f9:0d
-----BEGIN CERTIFICATE-----
MIIF+zCCA+OgAwIBAgIBBDANBgkqhkiG9w0BAQsFADCBkzELMAkGA1UEBhMCRlIx
DzANBgNVBAgMBkZyYW5jZTERMA8GA1UECgwIU3lzdGVyZWwxNjA0BgNVBAMMLVMy
T1BDIENlbnR1cnkgQ2VydGlmaWNhdGUgQXV0aG9yaXR5IGZvciBUZXN0czEoMCYG
CSqGSIb3DQEJARYZczJvcGMtc3VwcG9ydEBzeXN0ZXJlbC5mcjAeFw0yMzEwMDMw
OTI5MzFaFw0yNTEwMDIwOTI5MzFaMIGIMQswCQYDVQQGEwJGUjEPMA0GA1UECAwG
RnJhbmNlMRgwFgYDVQQHDA9BaXgtZW4tUHJvdmVuY2UxETAPBgNVBAoMCFN5c3Rl
cmVsMTswOQYDVQQDDDJTMk9QQyBEZW1vIEludGVybWVkaWF0ZSBDbGllbnQgQXV0
aG9yaXR5IGZvciBUZXN0czCCAiIwDQYJKoZIhvcNAQEBBQADggIPADCCAgoCggIB
AMlhOQhQWI+Lr5l1824kVzrR1+Cz7gt/ozj6Jn9ulrAJ5DjoZidhHBhueIzlT8Cp
VO1bt5HICEm9AHzbVFslsE3wQZ+bucNWkE33M4UnHWRvFbSQBr+AW0TZolo6SUL8
Ek9SsOM6zujs9R1RvQL7yJ//g/Wh2SvwQd3OVm8f+79TAnEYvZlLSBe7SsDJ9tpg
XfQs4pBCSYbFlBCqkrLKh38ooqrGhGbuiTccyLGM9xtE9w0qybntxa2GjTbInE24
jt+St5Gt3CpCxV1514DiO0Q38qDACxqle1VgemLSm8o9Lm6EGN8ROtHa8MoYuZ9s
VIQoNyAzlKAbonql6YaZsEeJvWvuftDBuy36awFqwU+mqJCJHovNHxx7dd4Hb/3h
kbOJh0w8zhHvLTHBBXsU9d5YlvRLtY8yTl/429B4aGsLsvpP0HAWGSBNGFXKWVuU
HjpvVZY4+3GHuN4WuenLXVhF+1k9QOALB/E9jfe+LKWAqlwgJ7RQ8UDKGydWvsDI
P4piMRRTTeQ2M9JRKBNsZXGZxxq+KXdJywYsv7uXmIT15PmRE33y+AvJ9X2gjmtA
/HsghqqmJV7SG0yFnGlgPlo8YLLF+tlYVe3ly96U9u6vzo101fgy3SDqVzmc7Lk5
LE0s2/xsMf3D8/uOI7dxTD2kQqPvDAerHeUa4rkp/GHnAgMBAAGjYzBhMB0GA1Ud
DgQWBBSH0GxQxC1dk7XkcWdeJXav6LBfBTAfBgNVHSMEGDAWgBR6RsvSLzCk/2cp
Ezk/nAK/A9BygjAPBgNVHRMBAf8EBTADAQH/MA4GA1UdDwEB/wQEAwIBhjANBgkq
hkiG9w0BAQsFAAOCAgEAeCJlmBDBWxaXFMihsF6YMYGEWRatG6bwCHrJqP2SXXzt
BU+npI+k7WVS88xG3D66FVykDwF3OT6g1P/7XLZnKnPd2W5GgSm9Ne1NEDEqIvpU
SNlYmTIvFfE4lkjsu20PMl8j+3iTxebK4j9PZk2Vcg6pn5jQZ66nLwByQa0sSJo0
yQttElX4m7soiIRm/jn35qANno3lOdV+et3EH3XcoNe7oIqFhMCmdPnANdUEJ62r
+TiB2Wj1q8dLm1A6oegYS+abqEeV78vuKkb2d+96e5px88iF2nXKI80sUYlWIGYI
PxhDfFtFnXrH44Xf2dM022Mu84N00ZCnVkQUq/nU1QmM9VSsBpjRX0bQFqrG2ndb
pPDnq7a8hsellZBiazizrM6zFrjt+Rohu7LXbrwWE+vNB0QXGeI7NB94TRo2iBRU
UtZBCtGLrO+dxCAMYncy+Hd8AhfpG52ovCtHL+DrtD9QKjqT/HYPvIYBiYINi7Rp
6n+7jliYCEGmFfi0V2iQ4x6LKAhcn6VLFbYTmbGZM3gJ668wEWLblvgDsng2S1qm
o7AdfjxFihOPATZn6l+hknIaGtD1s0eAHbfH+Z9hsQj85zFtzHhldHuDY4przUh7
rJshRZlj4DebdnBwDgtqAwea/fn8jh/QzLyzG0xacIoeeqQHn8NIwSkYZ6RE+Q0=
-----END CERTIFICATE-----
