Certificate:
    Data:
        Version: 3 (0x2)
        Serial Number: 1 (0x1)
    Signature Algorithm: sha256WithRSAEncryption
        Issuer: C=FR, ST=IDF, L=PARIS, O=INGOPCS, OU=INGOPCS, CN=INGOPCS CA/emailAddress=ingopcs@systerel.fr
        Validity
            Not Before: May 22 12:43:53 2017 GMT
            Not After : May 22 12:43:53 2018 GMT
        Subject: C=FR, ST=IDF, L=PARIS, O=SYSTEREL, CN=INGOPCS
        Subject Public Key Info:
            Public Key Algorithm: rsaEncryption
                Public-Key: (2048 bit)
                Modulus:
                    00:cf:7e:fe:a1:af:52:21:61:ed:34:52:0f:52:9b:
                    69:d0:c9:09:3c:a1:0c:05:ed:f4:38:3a:0f:5c:a1:
                    ee:53:c8:2d:fb:eb:69:4a:61:11:d0:04:95:0f:ff:
                    7f:b8:76:0f:c2:9a:d7:26:8f:28:da:c1:a7:fe:6a:
                    34:52:49:cb:f1:11:84:b9:be:4d:f1:f3:63:29:14:
                    d3:34:69:4e:b4:48:75:cd:18:7e:27:8b:54:17:15:
                    71:d1:f7:48:bc:d9:ed:32:e2:36:2c:81:3b:94:6b:
                    73:48:54:09:e4:94:36:18:31:37:43:cb:b4:86:db:
                    8c:25:d3:49:89:35:26:06:b1:5a:29:e6:da:c1:f2:
                    87:72:48:9e:2d:5a:31:0b:b5:d5:93:fc:c3:13:bb:
                    7d:62:3c:a4:78:8d:7a:7e:2b:2e:85:13:22:21:60:
                    9a:c4:f3:31:65:10:83:28:4c:02:54:36:1b:7e:64:
                    25:3a:fe:98:52:e6:dc:a8:30:07:2a:03:d4:bb:ef:
                    56:e3:98:b8:ec:b2:0e:33:4f:1d:56:a1:fc:36:cc:
                    1b:9e:6c:9b:dd:9e:34:20:68:76:8b:5a:b7:ba:91:
                    b6:81:9d:77:61:35:67:e7:73:30:11:64:ad:0c:b2:
                    dd:7b:26:bf:94:1b:10:a8:63:f7:68:4f:c0:be:43:
                    35:95
                Exponent: 65537 (0x10001)
        X509v3 extensions:
            X509v3 Subject Key Identifier: 
                6D:F9:6E:70:89:A6:4E:DA:0D:0A:5A:05:18:11:D2:1B:DB:7D:68:64
            X509v3 Authority Key Identifier: 
                keyid:78:A2:AE:09:C2:28:75:23:D9:B2:0F:7F:B3:12:93:EC:F5:CE:2D:14

            X509v3 Basic Constraints: critical
                CA:TRUE
            X509v3 Key Usage: 
                Certificate Sign, CRL Sign
    Signature Algorithm: sha256WithRSAEncryption
         4f:cd:ab:00:9b:21:b7:c2:54:a7:f0:92:64:27:b5:be:3f:52:
         28:9e:1a:6e:6b:f4:d4:38:15:69:62:51:5a:22:79:a3:97:34:
         b5:2e:48:74:48:fe:9c:91:29:f4:b8:04:b8:0e:12:e7:bc:62:
         c9:22:35:da:a6:ef:90:c7:2c:29:03:b8:ff:41:30:6e:a4:63:
         93:d4:50:be:29:9a:62:dc:d8:f0:26:3e:de:66:6f:58:6c:24:
         b2:a8:39:e9:ea:8d:e3:d0:97:35:a7:23:ce:f3:2d:46:f7:72:
         8a:62:bd:62:34:fc:6d:dc:37:6d:0c:5d:ac:c3:a2:9d:2f:90:
         df:53:dd:65:82:4b:42:d1:d7:ab:0a:72:f6:c4:7d:12:b9:e9:
         05:1e:c2:c8:cd:62:f6:97:1e:74:bd:00:02:7e:d9:f9:70:3a:
         29:5c:f9:a8:4b:65:75:7f:53:f5:54:b8:d8:f2:89:41:48:b0:
         d8:de:3f:e6:87:8b:5e:e3:6c:da:8e:3d:c4:bb:39:f0:73:d6:
         15:c7:b7:f3:6a:92:e5:6e:52:ad:00:a7:34:e9:58:1d:03:b0:
         e3:f7:1f:24:e2:68:ff:9f:e5:16:f4:67:d7:37:f0:6a:0f:fb:
         44:ac:78:76:dd:6e:10:67:fb:95:59:50:fb:89:88:39:7a:36:
         a7:78:37:44:96:67:04:79:48:33:81:4f:0c:0a:d8:b7:af:27:
         44:eb:31:c8:1a:b9:cc:82:6e:64:3b:a4:d9:c0:66:01:72:fc:
         d8:e1:dd:ff:39:8d:cb:78:54:26:f1:29:20:b1:89:b7:a9:03:
         d2:1a:df:fb:d9:18:94:d3:2f:09:6f:d9:ff:bc:cb:a3:22:de:
         bb:c9:4c:00:97:f0:c6:1e:56:e1:b0:fa:a0:37:cd:ba:b4:24:
         76:6e:c3:16:82:56:fe:04:b8:81:86:59:a3:5e:1b:c0:6a:3f:
         99:93:bf:d7:f2:16:40:7e:20:4c:d0:66:52:84:2e:71:a1:28:
         92:6d:a9:df:c8:23:38:2f:26:4c:00:c1:32:ed:fb:c5:f2:c3:
         5b:b4:32:77:1f:50:d9:cd:93:a4:46:4e:3d:2b:f7:8a:cf:0e:
         22:59:6e:b1:5e:b3:26:b0:ac:61:75:62:93:d7:2e:77:05:55:
         1d:34:1a:2b:f5:48:29:95:3f:5c:e1:ca:68:c6:c4:66:4d:da:
         eb:f7:dc:a3:1d:09:c4:75:d0:01:84:be:62:19:dd:aa:12:73:
         9b:34:fa:99:f6:0d:cb:43:fc:15:a7:2e:91:92:ed:e9:62:b3:
         d9:98:dd:54:d0:e8:5f:3b:f2:db:4c:0e:80:57:55:85:a2:48:
         e1:b9:25:9d:75:7a:e3:8b
-----BEGIN CERTIFICATE-----
MIIEtDCCApygAwIBAgIBATANBgkqhkiG9w0BAQsFADCBiDELMAkGA1UEBhMCRlIx
DDAKBgNVBAgMA0lERjEOMAwGA1UEBwwFUEFSSVMxEDAOBgNVBAoMB0lOR09QQ1Mx
EDAOBgNVBAsMB0lOR09QQ1MxEzARBgNVBAMMCklOR09QQ1MgQ0ExIjAgBgkqhkiG
9w0BCQEWE2luZ29wY3NAc3lzdGVyZWwuZnIwHhcNMTcwNTIyMTI0MzUzWhcNMTgw
NTIyMTI0MzUzWjBQMQswCQYDVQQGEwJGUjEMMAoGA1UECAwDSURGMQ4wDAYDVQQH
DAVQQVJJUzERMA8GA1UECgwIU1lTVEVSRUwxEDAOBgNVBAMMB0lOR09QQ1MwggEi
MA0GCSqGSIb3DQEBAQUAA4IBDwAwggEKAoIBAQDPfv6hr1IhYe00Ug9Sm2nQyQk8
oQwF7fQ4Og9coe5TyC3762lKYRHQBJUP/3+4dg/Cmtcmjyjawaf+ajRSScvxEYS5
vk3x82MpFNM0aU60SHXNGH4ni1QXFXHR90i82e0y4jYsgTuUa3NIVAnklDYYMTdD
y7SG24wl00mJNSYGsVop5trB8odySJ4tWjELtdWT/MMTu31iPKR4jXp+Ky6FEyIh
YJrE8zFlEIMoTAJUNht+ZCU6/phS5tyoMAcqA9S771bjmLjssg4zTx1Wofw2zBue
bJvdnjQgaHaLWre6kbaBnXdhNWfnczARZK0Mst17Jr+UGxCoY/doT8C+QzWVAgMB
AAGjYDBeMB0GA1UdDgQWBBRt+W5wiaZO2g0KWgUYEdIb231oZDAfBgNVHSMEGDAW
gBR4oq4Jwih1I9myD3+zEpPs9c4tFDAPBgNVHRMBAf8EBTADAQH/MAsGA1UdDwQE
AwIBBjANBgkqhkiG9w0BAQsFAAOCAgEAT82rAJsht8JUp/CSZCe1vj9SKJ4abmv0
1DgVaWJRWiJ5o5c0tS5IdEj+nJEp9LgEuA4S57xiySI12qbvkMcsKQO4/0EwbqRj
k9RQvimaYtzY8CY+3mZvWGwksqg56eqN49CXNacjzvMtRvdyimK9YjT8bdw3bQxd
rMOinS+Q31PdZYJLQtHXqwpy9sR9ErnpBR7CyM1i9pcedL0AAn7Z+XA6KVz5qEtl
dX9T9VS42PKJQUiw2N4/5oeLXuNs2o49xLs58HPWFce382qS5W5SrQCnNOlYHQOw
4/cfJOJo/5/lFvRn1zfwag/7RKx4dt1uEGf7lVlQ+4mIOXo2p3g3RJZnBHlIM4FP
DArYt68nROsxyBq5zIJuZDuk2cBmAXL82OHd/zmNy3hUJvEpILGJt6kD0hrf+9kY
lNMvCW/Z/7zLoyLeu8lMAJfwxh5W4bD6oDfNurQkdm7DFoJW/gS4gYZZo14bwGo/
mZO/1/IWQH4gTNBmUoQucaEokm2p38gjOC8mTADBMu37xfLDW7Qydx9Q2c2TpEZO
PSv3is8OIllusV6zJrCsYXVik9cudwVVHTQaK/VIKZU/XOHKaMbEZk3a6/fcox0J
xHXQAYS+YhndqhJzmzT6mfYNy0P8FacukZLt6WKz2ZjdVNDoXzvy20wOgFdVhaJI
4bklnXV644s=
-----END CERTIFICATE-----
