Certificate:
    Data:
        Version: 3 (0x2)
        Serial Number: 3 (0x3)
    Signature Algorithm: sha256WithRSAEncryption
        Issuer: C=FR, ST=IDF, L=PARIS, O=INGOPCS, OU=INGOPCS, CN=INGOPCS CA/emailAddress=ingopcs@systerel.fr
        Validity
            Not Before: Sep 27 15:52:22 2017 GMT
            Not After : Sep 27 15:52:22 2018 GMT
        Subject: C=FR, ST=IDF, L=PARIS, O=INGOPCS, OU=INGOPCS, CN=INGOPCS CLIENT
        Subject Public Key Info:
            Public Key Algorithm: rsaEncryption
                Public-Key: (2048 bit)
                Modulus:
                    00:c9:a0:f2:5c:7f:2c:c2:af:a2:23:cf:13:54:94:
                    93:ce:95:71:7b:fb:79:e5:f6:1c:32:60:80:d8:7e:
                    a4:1c:e5:24:f3:20:9c:b6:2c:7d:30:d1:34:8a:c1:
                    b3:99:5a:54:d2:c9:35:be:e7:4b:3d:26:4f:2c:85:
                    f1:d9:bd:84:78:16:19:97:3e:54:c9:79:dc:bd:32:
                    10:e3:5b:2e:8c:8d:52:44:70:cc:00:a8:8c:29:bc:
                    44:2b:ee:c6:ee:4b:7d:5c:a8:74:b9:cc:b1:7f:3f:
                    dd:5f:8b:20:a3:08:5e:30:5a:49:14:c8:71:0e:46:
                    f7:7f:33:e5:42:70:6f:e7:39:c2:cd:a9:b1:72:e6:
                    b5:7e:e8:52:f2:b2:23:b4:55:95:d7:d3:fc:bb:4a:
                    42:f6:a9:f9:3c:cc:bf:19:df:9c:95:a4:66:70:ca:
                    32:69:ed:48:d1:5f:c8:4c:92:74:d0:00:26:28:b4:
                    59:c4:89:cd:70:a3:8a:d3:a9:2d:a1:50:7f:24:3d:
                    cb:40:65:3b:89:25:92:c2:21:f1:0f:23:58:bd:6d:
                    11:6a:7d:69:6c:55:dd:40:13:27:05:b0:dc:dc:9f:
                    e4:7e:9c:74:0b:a4:75:e2:19:dc:14:8d:79:26:d9:
                    3b:c9:a1:21:b2:82:4e:a3:9d:72:37:8d:cf:d9:ab:
                    8d:49
                Exponent: 65537 (0x10001)
        X509v3 extensions:
            X509v3 Subject Key Identifier: 
                D1:3B:18:64:0E:B9:1B:6F:EC:17:11:39:17:3B:32:1E:3E:E8:D3:D7
            X509v3 Authority Key Identifier: 
                keyid:31:AE:8E:65:33:64:06:E4:37:9B:51:8F:C3:37:9D:CE:45:9B:B6:1F

            X509v3 Basic Constraints: critical
                CA:TRUE
            X509v3 Key Usage: 
                Certificate Sign, CRL Sign
            X509v3 Subject Alternative Name: 
                DNS:localhost
            Netscape Comment: 
                OpenSSL Generated Certificate
    Signature Algorithm: sha256WithRSAEncryption
         4f:19:3a:48:0a:7f:0e:fd:f9:87:2c:16:1f:5b:bb:79:80:0f:
         07:a6:41:ab:35:fa:b0:00:54:b4:3c:f2:19:14:c7:2f:3d:35:
         c2:89:1f:66:0d:1f:03:b5:b9:3a:14:e9:fc:83:90:fd:98:4c:
         7c:34:f3:85:2e:08:c8:f1:89:01:b3:5a:40:fc:62:44:af:52:
         a5:2a:b5:9e:dc:1f:0a:19:3e:89:7e:53:8c:84:bf:60:db:96:
         7e:ea:d5:05:ec:60:2f:e8:f5:8a:51:06:6a:ed:c1:1a:f3:42:
         f2:45:9e:87:33:42:fc:e6:88:45:5e:86:f8:82:eb:8a:e5:9d:
         29:01:1d:86:81:e1:0c:a7:c6:ae:e0:3d:ad:17:8a:ab:de:23:
         9a:3b:23:f1:dd:7d:2c:b4:f8:41:e7:69:13:1e:db:da:c8:12:
         b7:ce:ce:f9:88:b5:06:aa:2d:7c:d8:e0:d5:23:68:59:b2:72:
         01:fd:c8:b5:30:c8:4d:30:fb:87:60:61:35:44:d9:4f:0f:7e:
         15:23:32:d4:ed:7a:af:c6:84:79:d9:5d:ba:bd:52:d7:9a:4d:
         65:30:8b:25:d0:91:de:e5:52:6d:85:9e:f5:d0:f2:cc:3b:38:
         de:c9:80:34:75:8c:3c:d0:a4:79:9d:e6:a7:5a:77:c2:db:ae:
         91:4f:30:d2
-----BEGIN CERTIFICATE-----
MIIEEjCCAvqgAwIBAgIBAzANBgkqhkiG9w0BAQsFADCBiDELMAkGA1UEBhMCRlIx
DDAKBgNVBAgMA0lERjEOMAwGA1UEBwwFUEFSSVMxEDAOBgNVBAoMB0lOR09QQ1Mx
EDAOBgNVBAsMB0lOR09QQ1MxEzARBgNVBAMMCklOR09QQ1MgQ0ExIjAgBgkqhkiG
9w0BCQEWE2luZ29wY3NAc3lzdGVyZWwuZnIwHhcNMTcwOTI3MTU1MjIyWhcNMTgw
OTI3MTU1MjIyWjBoMQswCQYDVQQGEwJGUjEMMAoGA1UECAwDSURGMQ4wDAYDVQQH
DAVQQVJJUzEQMA4GA1UECgwHSU5HT1BDUzEQMA4GA1UECwwHSU5HT1BDUzEXMBUG
A1UEAwwOSU5HT1BDUyBDTElFTlQwggEiMA0GCSqGSIb3DQEBAQUAA4IBDwAwggEK
AoIBAQDJoPJcfyzCr6IjzxNUlJPOlXF7+3nl9hwyYIDYfqQc5STzIJy2LH0w0TSK
wbOZWlTSyTW+50s9Jk8shfHZvYR4FhmXPlTJedy9MhDjWy6MjVJEcMwAqIwpvEQr
7sbuS31cqHS5zLF/P91fiyCjCF4wWkkUyHEORvd/M+VCcG/nOcLNqbFy5rV+6FLy
siO0VZXX0/y7SkL2qfk8zL8Z35yVpGZwyjJp7UjRX8hMknTQACYotFnEic1wo4rT
qS2hUH8kPctAZTuJJZLCIfEPI1i9bRFqfWlsVd1AEycFsNzcn+R+nHQLpHXiGdwU
jXkm2TvJoSGygk6jnXI3jc/Zq41JAgMBAAGjgaUwgaIwHQYDVR0OBBYEFNE7GGQO
uRtv7BcRORc7Mh4+6NPXMB8GA1UdIwQYMBaAFDGujmUzZAbkN5tRj8M3nc5Fm7Yf
MA8GA1UdEwEB/wQFMAMBAf8wCwYDVR0PBAQDAgEGMBQGA1UdEQQNMAuCCWxvY2Fs
aG9zdDAsBglghkgBhvhCAQ0EHxYdT3BlblNTTCBHZW5lcmF0ZWQgQ2VydGlmaWNh
dGUwDQYJKoZIhvcNAQELBQADggEBAE8ZOkgKfw79+YcsFh9bu3mADwemQas1+rAA
VLQ88hkUxy89NcKJH2YNHwO1uToU6fyDkP2YTHw084UuCMjxiQGzWkD8YkSvUqUq
tZ7cHwoZPol+U4yEv2Dbln7q1QXsYC/o9YpRBmrtwRrzQvJFnoczQvzmiEVehviC
64rlnSkBHYaB4Qynxq7gPa0XiqveI5o7I/HdfSy0+EHnaRMe29rIErfOzvmItQaq
LXzY4NUjaFmycgH9yLUwyE0w+4dgYTVE2U8PfhUjMtTteq/GhHnZXbq9UteaTWUw
iyXQkd7lUm2FnvXQ8sw7ON7JgDR1jDzQpHmd5qdad8LbrpFPMNI=
-----END CERTIFICATE-----
