Certificate:
    Data:
        Version: 3 (0x2)
        Serial Number: 91 (0x5b)
    Signature Algorithm: sha256WithRSAEncryption
        Issuer: C=FR, ST=France, O=Systerel, CN=S2OPC Century Certificate Authority for Tests/emailAddress=s2opc-support@systerel.fr
        Validity
            Not Before: Nov 19 16:06:31 2019 GMT
            Not After : Oct 26 16:06:31 2119 GMT
        Subject: C=FR, ST=France, O=Systerel, CN=S2OPC Century Certificate for Test Servers
        Subject Public Key Info:
            Public Key Algorithm: rsaEncryption
                Public-Key: (2048 bit)
                Modulus:
                    00:9b:b3:fc:e0:a5:80:5a:86:80:35:e5:b1:bb:e1:
                    61:af:33:be:45:96:c9:02:9f:e7:28:9e:3c:48:52:
                    c9:ad:a1:05:42:5f:96:bf:73:29:41:12:3e:6d:e1:
                    a7:35:cc:64:42:29:e8:95:e3:5b:a4:18:0c:37:ef:
                    e7:05:f1:37:6b:e6:50:c8:f4:c6:e1:26:ce:a0:f8:
                    0d:52:a0:33:cf:76:83:e1:27:a1:e6:ae:33:6b:b0:
                    78:9c:48:fe:82:bd:0b:c6:5a:c5:33:ea:7a:60:57:
                    39:c0:73:76:ce:f6:08:8c:f8:81:ee:52:eb:6a:e0:
                    4f:c6:dc:10:cd:70:59:a1:b8:55:15:31:72:1d:71:
                    48:6b:bb:8f:ba:8f:1d:28:98:cf:ca:99:1d:ff:31:
                    c7:1d:a7:f7:2b:08:30:3b:45:3f:ff:bb:17:11:17:
                    ec:ce:d9:33:09:23:3f:e1:17:2f:cb:61:84:b7:6d:
                    6d:05:56:71:ba:56:d2:d5:61:f0:8c:a2:82:8f:97:
                    c7:2c:10:89:9c:60:31:27:fc:98:72:5a:1b:81:84:
                    a1:a4:9b:84:33:24:00:d2:3d:92:f3:fd:5a:8b:75:
                    90:5b:3f:ac:bb:f7:2e:3b:80:cd:e8:6a:be:cf:50:
                    6e:5f:4e:75:1f:e2:fd:3d:16:9e:b0:2d:56:74:ef:
                    c6:af
                Exponent: 65537 (0x10001)
        X509v3 extensions:
            X509v3 Subject Key Identifier: 
                67:45:AA:CC:41:25:41:D8:E1:D5:50:21:FD:83:E5:77:A3:F4:E3:EA
            X509v3 Authority Key Identifier: 
                keyid:7A:46:CB:D2:2F:30:A4:FF:67:29:13:39:3F:9C:02:BF:03:D0:72:82

            X509v3 Key Usage: 
                Digital Signature, Non Repudiation, Key Encipherment, Data Encipherment
            X509v3 Extended Key Usage: 
                TLS Web Server Authentication
            X509v3 Basic Constraints: 
                CA:FALSE
            X509v3 Subject Alternative Name: 
                URI:urn:S2OPC:localhost, DNS:localhost
    Signature Algorithm: sha256WithRSAEncryption
         09:f2:25:68:1c:a8:f0:af:a4:8b:0d:76:25:7c:e2:81:b7:36:
         10:57:c7:a8:e1:9d:a3:cf:67:fe:46:73:ba:a1:5f:cf:17:15:
         76:de:e6:8f:37:5c:05:3d:b7:ed:66:06:fc:9b:f4:6b:42:a7:
         65:63:e9:de:48:50:f1:12:54:01:06:b8:8d:ea:65:2a:ed:18:
         09:da:fb:13:ff:bf:17:bb:62:b0:76:6c:a0:d4:7d:8d:88:6c:
         d1:9a:1f:75:04:b2:2c:1f:c1:64:ff:7f:85:4d:7e:44:77:5c:
         53:c6:cf:dd:1f:03:de:f6:b5:7c:32:3c:3e:13:50:36:02:a9:
         74:08:80:80:8a:a3:5b:07:32:00:53:10:44:60:3b:25:a2:9a:
         f7:62:30:68:26:1f:dd:57:b8:6c:3d:fb:85:e5:ab:51:04:50:
         6e:9d:ed:22:6e:5c:8c:58:0e:80:a0:b9:d2:b4:d2:5d:5c:ed:
         be:01:1c:01:ac:9a:dc:68:67:81:93:1a:87:d1:eb:b5:57:73:
         ef:71:e8:34:17:4c:f4:46:25:45:d6:ad:36:97:d9:09:c4:33:
         0f:56:f4:74:16:c4:09:26:0a:57:dd:01:cb:e1:82:17:a7:3c:
         e1:2e:0f:e0:1e:ed:4b:21:d4:3e:80:53:95:f3:a3:a4:04:b6:
         5d:5c:d3:a0:d5:7c:bb:fc:b6:ac:d9:70:64:cc:e3:ab:b0:87:
         d5:66:48:7e:c6:86:ab:ce:7e:9d:d7:07:ec:c1:3b:91:b0:10:
         d9:fb:bd:d5:77:2c:2d:b4:88:b5:24:2b:be:87:ed:d5:da:ed:
         f3:89:35:3a:aa:22:5b:bb:f8:33:6a:79:d1:9f:9d:e9:7b:cd:
         83:95:7b:ca:12:c6:60:29:66:63:49:aa:ca:fa:df:08:9d:b5:
         3d:20:f9:33:14:6a:b5:aa:a0:5c:aa:9b:76:c4:80:17:86:f1:
         9d:a9:d7:a5:f5:09:ec:34:21:d0:e1:92:da:13:31:fb:a8:db:
         d9:aa:d9:cc:85:87:20:96:3a:c5:fc:51:b9:92:ee:87:76:88:
         ee:42:88:53:12:69:05:7b:2d:92:b9:74:61:8a:f8:aa:19:62:
         1d:4d:ea:83:78:09:f2:3e:d7:ee:ac:38:f9:0a:26:5c:de:da:
         f6:eb:01:c8:22:47:d5:e0:ae:30:90:5c:16:63:35:60:f7:40:
         5b:1d:b6:58:32:12:1f:e8:84:d5:40:a2:93:23:a8:95:2d:72:
         6e:91:39:ee:6f:29:ad:cd:76:ba:b7:19:7b:ea:16:51:1f:90:
         79:f5:0f:e8:93:5c:18:41:74:32:4d:ba:24:1a:3b:6f:0d:40:
         e8:e4:e0:43:19:a3:37:dc
-----BEGIN CERTIFICATE-----
MIIFEzCCAvugAwIBAgIBWzANBgkqhkiG9w0BAQsFADCBkzELMAkGA1UEBhMCRlIx
DzANBgNVBAgMBkZyYW5jZTERMA8GA1UECgwIU3lzdGVyZWwxNjA0BgNVBAMMLVMy
T1BDIENlbnR1cnkgQ2VydGlmaWNhdGUgQXV0aG9yaXR5IGZvciBUZXN0czEoMCYG
CSqGSIb3DQEJARYZczJvcGMtc3VwcG9ydEBzeXN0ZXJlbC5mcjAgFw0xOTExMTkx
NjA2MzFaGA8yMTE5MTAyNjE2MDYzMVowZjELMAkGA1UEBhMCRlIxDzANBgNVBAgM
BkZyYW5jZTERMA8GA1UECgwIU3lzdGVyZWwxMzAxBgNVBAMMKlMyT1BDIENlbnR1
cnkgQ2VydGlmaWNhdGUgZm9yIFRlc3QgU2VydmVyczCCASIwDQYJKoZIhvcNAQEB
BQADggEPADCCAQoCggEBAJuz/OClgFqGgDXlsbvhYa8zvkWWyQKf5yiePEhSya2h
BUJflr9zKUESPm3hpzXMZEIp6JXjW6QYDDfv5wXxN2vmUMj0xuEmzqD4DVKgM892
g+EnoeauM2uweJxI/oK9C8ZaxTPqemBXOcBzds72CIz4ge5S62rgT8bcEM1wWaG4
VRUxch1xSGu7j7qPHSiYz8qZHf8xxx2n9ysIMDtFP/+7FxEX7M7ZMwkjP+EXL8th
hLdtbQVWcbpW0tVh8Iyigo+XxywQiZxgMSf8mHJaG4GEoaSbhDMkANI9kvP9Wot1
kFs/rLv3LjuAzehqvs9Qbl9OdR/i/T0WnrAtVnTvxq8CAwEAAaOBmzCBmDAdBgNV
HQ4EFgQUZ0WqzEElQdjh1VAh/YPld6P04+owHwYDVR0jBBgwFoAUekbL0i8wpP9n
KRM5P5wCvwPQcoIwCwYDVR0PBAQDAgTwMBMGA1UdJQQMMAoGCCsGAQUFBwMBMAkG
A1UdEwQCMAAwKQYDVR0RBCIwIIYTdXJuOlMyT1BDOmxvY2FsaG9zdIIJbG9jYWxo
b3N0MA0GCSqGSIb3DQEBCwUAA4ICAQAJ8iVoHKjwr6SLDXYlfOKBtzYQV8eo4Z2j
z2f+RnO6oV/PFxV23uaPN1wFPbftZgb8m/RrQqdlY+neSFDxElQBBriN6mUq7RgJ
2vsT/78Xu2Kwdmyg1H2NiGzRmh91BLIsH8Fk/3+FTX5Ed1xTxs/dHwPe9rV8Mjw+
E1A2Aql0CICAiqNbBzIAUxBEYDslopr3YjBoJh/dV7hsPfuF5atRBFBune0iblyM
WA6AoLnStNJdXO2+ARwBrJrcaGeBkxqH0eu1V3Pvceg0F0z0RiVF1q02l9kJxDMP
VvR0FsQJJgpX3QHL4YIXpzzhLg/gHu1LIdQ+gFOV86OkBLZdXNOg1Xy7/Las2XBk
zOOrsIfVZkh+xoarzn6d1wfswTuRsBDZ+73VdywttIi1JCu+h+3V2u3ziTU6qiJb
u/gzannRn53pe82DlXvKEsZgKWZjSarK+t8InbU9IPkzFGq1qqBcqpt2xIAXhvGd
qdel9QnsNCHQ4ZLaEzH7qNvZqtnMhYcgljrF/FG5ku6HdojuQohTEmkFey2SuXRh
iviqGWIdTeqDeAnyPtfurDj5CiZc3tr26wHIIkfV4K4wkFwWYzVg90BbHbZYMhIf
6ITVQKKTI6iVLXJukTnubymtzXa6txl76hZRH5B59Q/ok1wYQXQyTbokGjtvDUDo
5OBDGaM33A==
-----END CERTIFICATE-----
