Certificate:
    Data:
        Version: 3 (0x2)
        Serial Number: 8195 (0x2003)
        Signature Algorithm: sha256WithRSAEncryption
        Issuer: C=FR, ST=France, O=Systerel, CN=S2OPC Demo Untrusted Authority for Tests/emailAddress=s2opc-support@systerel.fr, L=Aix-en-Provence
        Validity
            Not Before: Jan 22 16:41:13 2025 GMT
            Not After : Jan 20 16:41:13 2035 GMT
        Subject: C=FR, ST=France, L=Aix-en-Provence, O=Systerel, CN=S2OPC Demo Trusted Certificate for Server Tests
        Subject Public Key Info:
            Public Key Algorithm: rsaEncryption
                Public-Key: (4096 bit)
                Modulus:
                    00:d6:bd:ad:cc:a4:81:27:4c:93:a6:de:10:0f:77:
                    4d:ec:47:df:92:18:87:25:1a:e6:c3:f7:f3:ec:27:
                    06:20:04:9a:3f:4e:ef:41:cc:55:32:1a:c4:75:49:
                    52:68:e5:63:1a:39:eb:99:cb:8e:04:52:96:84:e5:
                    f0:86:1f:00:09:69:44:4c:c0:4a:00:5a:dd:61:d4:
                    60:a6:cd:a9:b5:97:40:db:d9:91:a7:ea:a8:1b:3b:
                    77:9c:30:25:ef:ea:ff:46:5a:82:14:d8:0f:66:22:
                    9b:c6:43:56:84:72:c2:61:03:9c:01:06:2d:e1:37:
                    ff:75:0a:2f:09:80:3e:ac:dc:e5:7a:c8:07:7c:d3:
                    af:75:bb:e5:19:83:d2:93:9e:36:29:a7:dc:39:8f:
                    ae:45:8c:ff:f0:3b:31:36:96:0f:e1:2f:ca:49:71:
                    29:cc:65:2e:28:89:5b:86:12:c1:e4:4e:1b:c1:c0:
                    d4:53:1f:77:88:f2:01:d5:08:9a:03:9d:07:d5:05:
                    2b:2d:e2:69:9f:96:e8:1b:7a:af:56:08:81:dd:08:
                    cc:1a:26:f1:1d:e8:b2:72:a0:7e:2f:e3:74:86:fc:
                    91:e7:c6:41:c6:cb:6e:19:ac:a5:25:60:2d:b2:05:
                    2c:23:a1:d9:e3:bb:df:1d:75:61:e0:7a:83:e4:37:
                    22:3a:cc:f0:34:7d:30:34:4b:d8:5f:68:f6:3e:9b:
                    69:34:b8:33:aa:15:a5:ac:3a:28:a4:32:4a:95:4c:
                    95:99:72:7d:90:41:b2:66:17:df:d7:f1:20:83:3b:
                    17:47:32:11:41:c5:4d:42:a1:e2:fe:53:f7:34:b6:
                    89:57:67:96:6f:26:2d:ee:07:4f:7e:35:5b:9b:4a:
                    0c:0b:9a:13:bc:1f:dc:1b:67:f2:0b:c6:02:ca:f1:
                    70:6a:81:24:dc:6c:97:cd:6a:22:55:ee:32:c4:1c:
                    99:3c:ea:9d:84:5e:a1:63:0d:02:35:f1:d5:75:7f:
                    0f:59:a7:8b:90:50:e0:f2:4a:45:1f:46:50:f1:71:
                    d1:5b:11:13:85:20:c6:eb:07:9b:ea:5a:25:51:af:
                    89:62:42:d6:a3:d5:08:a8:e2:07:08:db:69:b2:a3:
                    b7:1c:de:28:96:f9:ff:ba:6c:d6:73:3c:99:32:5e:
                    ed:0d:d0:b4:7f:95:f9:5e:4a:ad:ea:10:d0:2d:0d:
                    45:c2:0a:61:42:ff:fa:13:d6:d5:6d:64:78:c4:6d:
                    35:25:05:19:36:f4:ff:6a:b3:f2:17:52:8d:b4:2c:
                    fc:b8:f1:6f:c6:25:5c:fd:21:01:5f:ff:4a:02:8f:
                    4a:3f:a7:d9:1b:38:ed:cf:a9:c0:7a:33:3b:84:bd:
                    52:eb:5b
                Exponent: 65537 (0x10001)
        X509v3 extensions:
            X509v3 Subject Key Identifier: 
                79:5F:60:8B:69:5F:F8:6A:16:B0:36:D8:46:DF:0A:26:FF:06:83:71
            X509v3 Authority Key Identifier: 
                FC:79:D0:BE:55:BE:47:5E:EC:25:97:35:37:16:DE:EF:8D:E5:F2:B7
            X509v3 Key Usage: 
                Digital Signature, Non Repudiation, Key Encipherment, Data Encipherment
            X509v3 Extended Key Usage: 
                TLS Web Server Authentication
            X509v3 Basic Constraints: 
                CA:FALSE
            X509v3 Subject Alternative Name: 
                URI:urn:S2OPC:localhost, DNS:localhost
    Signature Algorithm: sha256WithRSAEncryption
    Signature Value:
        3e:7d:e1:4c:34:e4:54:6c:4d:f9:86:26:a2:be:83:9d:59:a3:
        61:75:d9:61:9a:71:b4:d4:14:33:e6:5a:d2:8d:33:46:93:1b:
        95:27:3a:11:de:eb:4d:55:20:c3:91:1a:75:5e:f7:e7:a4:84:
        1b:04:eb:ef:51:01:92:58:58:82:47:73:00:c8:ff:4b:c5:0a:
        93:ad:59:98:f6:e9:4d:fc:8c:14:2a:fc:93:d2:37:bd:89:98:
        87:1f:07:80:1e:ac:43:7c:4c:4b:a6:a3:cb:14:e8:ee:31:fa:
        e3:93:8f:d8:19:32:0d:da:39:58:2a:18:46:96:5e:72:d9:63:
        27:5c:51:5d:36:48:0f:81:b8:84:e1:b4:7a:08:64:89:c7:97:
        8a:5b:41:67:15:2d:3d:d4:0c:28:34:55:49:27:8e:a9:90:d0:
        a7:d5:66:f2:8e:2d:ff:68:d8:06:31:0c:41:84:c0:cd:a0:88:
        3b:80:41:66:6b:f4:bc:ab:8c:b7:40:c2:14:8d:ee:22:14:21:
        11:ad:e5:bb:24:02:c9:91:23:81:13:3f:b0:97:50:34:76:84:
        af:34:1a:d2:cb:cd:09:56:5a:b9:a9:e5:4e:41:96:27:63:18:
        53:62:19:05:8f:a0:71:9e:a2:6c:11:57:de:66:eb:a7:7c:ac:
        6e:e1:20:3f:7a:c0:53:cd:cd:4b:6a:98:41:de:da:3a:37:be:
        ce:9c:e1:b1:6c:81:00:01:75:6d:02:8d:34:2b:24:23:f4:6b:
        bd:0d:7e:cf:ff:5f:44:09:2a:d5:2f:06:66:3a:cb:da:79:c1:
        4d:87:f4:0e:10:e9:c0:00:2a:dd:7e:15:65:07:ae:ae:d0:d3:
        19:a2:8a:59:23:bc:84:6f:b7:04:d3:53:c5:a3:72:53:72:24:
        c0:35:68:76:54:84:02:4f:24:45:27:5b:ac:38:ef:d8:ae:1e:
        49:7d:90:32:40:30:f1:4d:7e:22:4d:f4:17:30:ec:f8:e7:fe:
        60:ff:f5:a0:e8:da:e7:8b:f1:ae:39:2c:ce:26:af:60:38:3e:
        40:95:3e:63:a9:c7:81:f1:9c:77:8c:17:9c:15:2d:83:7d:a9:
        48:d8:a3:68:50:4c:e0:a0:07:92:5e:b8:78:b9:93:2a:bf:59:
        96:b4:c6:f5:ef:d6:ef:60:1f:2d:54:ba:63:be:ba:5a:81:b2:
        fa:88:02:60:e0:fe:c4:0c:20:ec:4c:bd:a7:9e:60:e9:a2:f9:
        d5:a6:92:06:33:ac:43:56:9c:6c:43:00:85:07:10:00:db:b7:
        42:c3:c3:88:13:b7:e5:82:00:3d:82:7a:0e:41:a3:38:d0:ee:
        4a:87:eb:96:19:7e:43:b4
-----BEGIN CERTIFICATE-----
MIIGRzCCBC+gAwIBAgICIAMwDQYJKoZIhvcNAQELBQAwgagxCzAJBgNVBAYTAkZS
MQ8wDQYDVQQIDAZGcmFuY2UxETAPBgNVBAoMCFN5c3RlcmVsMTEwLwYDVQQDDChT
Mk9QQyBEZW1vIFVudHJ1c3RlZCBBdXRob3JpdHkgZm9yIFRlc3RzMSgwJgYJKoZI
hvcNAQkBFhlzMm9wYy1zdXBwb3J0QHN5c3RlcmVsLmZyMRgwFgYDVQQHDA9BaXgt
ZW4tUHJvdmVuY2UwHhcNMjUwMTIyMTY0MTEzWhcNMzUwMTIwMTY0MTEzWjCBhTEL
MAkGA1UEBhMCRlIxDzANBgNVBAgMBkZyYW5jZTEYMBYGA1UEBwwPQWl4LWVuLVBy
b3ZlbmNlMREwDwYDVQQKDAhTeXN0ZXJlbDE4MDYGA1UEAwwvUzJPUEMgRGVtbyBU
cnVzdGVkIENlcnRpZmljYXRlIGZvciBTZXJ2ZXIgVGVzdHMwggIiMA0GCSqGSIb3
DQEBAQUAA4ICDwAwggIKAoICAQDWva3MpIEnTJOm3hAPd03sR9+SGIclGubD9/Ps
JwYgBJo/Tu9BzFUyGsR1SVJo5WMaOeuZy44EUpaE5fCGHwAJaURMwEoAWt1h1GCm
zam1l0Db2ZGn6qgbO3ecMCXv6v9GWoIU2A9mIpvGQ1aEcsJhA5wBBi3hN/91Ci8J
gD6s3OV6yAd80691u+UZg9KTnjYpp9w5j65FjP/wOzE2lg/hL8pJcSnMZS4oiVuG
EsHkThvBwNRTH3eI8gHVCJoDnQfVBSst4mmflugbeq9WCIHdCMwaJvEd6LJyoH4v
43SG/JHnxkHGy24ZrKUlYC2yBSwjodnju98ddWHgeoPkNyI6zPA0fTA0S9hfaPY+
m2k0uDOqFaWsOiikMkqVTJWZcn2QQbJmF9/X8SCDOxdHMhFBxU1CoeL+U/c0tolX
Z5ZvJi3uB09+NVubSgwLmhO8H9wbZ/ILxgLK8XBqgSTcbJfNaiJV7jLEHJk86p2E
XqFjDQI18dV1fw9Zp4uQUODySkUfRlDxcdFbEROFIMbrB5vqWiVRr4liQtaj1Qio
4gcI22myo7cc3iiW+f+6bNZzPJkyXu0N0LR/lfleSq3qENAtDUXCCmFC//oT1tVt
ZHjEbTUlBRk29P9qs/IXUo20LPy48W/GJVz9IQFf/0oCj0o/p9kbOO3PqcB6MzuE
vVLrWwIDAQABo4GbMIGYMB0GA1UdDgQWBBR5X2CLaV/4ahawNthG3wom/waDcTAf
BgNVHSMEGDAWgBT8edC+Vb5HXuwllzU3Ft7vjeXytzALBgNVHQ8EBAMCBPAwEwYD
VR0lBAwwCgYIKwYBBQUHAwEwCQYDVR0TBAIwADApBgNVHREEIjAghhN1cm46UzJP
UEM6bG9jYWxob3N0gglsb2NhbGhvc3QwDQYJKoZIhvcNAQELBQADggIBAD594Uw0
5FRsTfmGJqK+g51Zo2F12WGacbTUFDPmWtKNM0aTG5UnOhHe601VIMORGnVe9+ek
hBsE6+9RAZJYWIJHcwDI/0vFCpOtWZj26U38jBQq/JPSN72JmIcfB4AerEN8TEum
o8sU6O4x+uOTj9gZMg3aOVgqGEaWXnLZYydcUV02SA+BuIThtHoIZInHl4pbQWcV
LT3UDCg0VUknjqmQ0KfVZvKOLf9o2AYxDEGEwM2giDuAQWZr9LyrjLdAwhSN7iIU
IRGt5bskAsmRI4ETP7CXUDR2hK80GtLLzQlWWrmp5U5BlidjGFNiGQWPoHGeomwR
V95m66d8rG7hID96wFPNzUtqmEHe2jo3vs6c4bFsgQABdW0CjTQrJCP0a70Nfs//
X0QJKtUvBmY6y9p5wU2H9A4Q6cAAKt1+FWUHrq7Q0xmiilkjvIRvtwTTU8WjclNy
JMA1aHZUhAJPJEUnW6w479iuHkl9kDJAMPFNfiJN9Bcw7Pjn/mD/9aDo2ueL8a45
LM4mr2A4PkCVPmOpx4HxnHeMF5wVLYN9qUjYo2hQTOCgB5JeuHi5kyq/WZa0xvXv
1u9gHy1UumO+ulqBsvqIAmDg/sQMIOxMvaeeYOmi+dWmkgYzrENWnGxDAIUHEADb
t0LDw4gTt+WCAD2Ceg5BozjQ7kqH65YZfkO0
-----END CERTIFICATE-----
