Certificate:
    Data:
        Version: 3 (0x2)
        Serial Number: 8194 (0x2002)
        Signature Algorithm: sha256WithRSAEncryption
        Issuer: C=FR, ST=France, O=Systerel, CN=S2OPC Demo Untrusted Authority for Tests/emailAddress=s2opc-support@systerel.fr, L=Aix-en-Provence
        Validity
            Not Before: Jan 22 16:41:10 2025 GMT
            Not After : Jan 20 16:41:10 2035 GMT
        Subject: C=FR, ST=France, L=Aix-en-Provence, O=Systerel, CN=S2OPC Demo Trusted Certificate for Client Tests
        Subject Public Key Info:
            Public Key Algorithm: rsaEncryption
                Public-Key: (4096 bit)
                Modulus:
                    00:c5:fb:66:47:bd:1d:65:ad:4f:67:15:29:52:f5:
                    72:30:38:77:51:89:63:5b:11:53:96:e7:95:08:7c:
                    a3:11:8c:7d:3e:39:d5:96:e6:86:68:c1:3d:45:fe:
                    88:d3:5f:7b:75:df:c2:fb:61:86:d1:08:76:f6:63:
                    5a:2f:23:b0:cf:9c:e5:cb:54:ed:64:12:f3:07:19:
                    13:c4:c2:e5:00:c0:d3:bf:a5:99:fb:4f:48:b3:b2:
                    4b:c2:5d:84:3c:9c:71:9a:6c:42:19:51:75:a7:9e:
                    89:83:63:29:11:13:d6:6b:ed:1a:8b:da:da:20:0f:
                    b4:c3:79:f3:1c:b1:1b:96:42:43:34:d7:c0:e6:57:
                    59:db:a6:03:17:1e:2b:45:a5:09:0f:e3:d2:8a:7b:
                    3b:92:cf:b9:d9:d5:0f:9b:05:34:b1:28:74:ad:b9:
                    b6:9d:4f:75:a3:fc:6d:ac:a1:14:17:5e:8e:8d:50:
                    28:75:b7:04:7a:b9:fd:6f:7e:41:0c:d0:12:8d:53:
                    7b:cf:83:a2:5f:63:46:a1:82:75:ed:57:1a:a5:17:
                    00:1b:29:3f:8a:32:2f:58:52:85:49:6f:0d:2d:c5:
                    c0:d8:f9:80:2b:39:4c:2a:76:bf:e0:9c:50:28:17:
                    0d:3a:93:5d:89:91:63:7c:80:39:c7:de:51:e9:81:
                    a8:91:5d:bc:58:92:1d:af:d9:ed:8d:cd:09:4f:95:
                    e2:6b:37:3a:92:25:c6:6d:27:19:a0:0c:67:0e:2c:
                    38:ff:66:68:4b:3a:d9:54:58:fa:a4:6d:ab:be:74:
                    55:fc:a3:5d:97:d2:2e:e2:31:4a:26:5a:8a:17:58:
                    51:a8:7d:10:fe:27:02:c2:06:f4:44:eb:7f:3b:3a:
                    6a:51:4e:28:db:66:d7:cb:af:ec:ba:f9:0c:74:9e:
                    81:4d:56:4b:8e:14:c0:86:35:b1:e9:0b:78:8b:6e:
                    d0:6e:d0:25:5e:47:59:78:f8:a0:e0:1d:c0:1a:a4:
                    98:7b:72:c3:02:0b:2a:9e:ce:3d:c4:f7:28:1a:48:
                    d5:66:7a:1b:58:d0:12:02:e3:ef:d7:eb:58:25:64:
                    e1:f8:80:d2:ca:dd:71:6e:d6:d1:01:35:0e:2b:90:
                    e2:42:99:df:70:9e:81:1a:22:9d:ce:fc:27:33:7d:
                    09:b8:c7:1b:db:da:6b:f1:f2:ef:d9:57:8b:a0:69:
                    4d:83:3f:ab:a0:7d:80:45:5d:06:ec:65:90:f2:db:
                    88:18:8a:25:3a:17:98:34:60:77:06:46:31:34:9a:
                    92:09:b4:86:ab:4c:d4:1a:b1:08:72:5c:7a:8f:40:
                    27:b5:f8:2c:a8:47:01:a9:8f:24:65:e9:c2:2d:fd:
                    97:14:cb
                Exponent: 65537 (0x10001)
        X509v3 extensions:
            X509v3 Subject Key Identifier: 
                F1:6F:B2:40:7F:BF:61:87:59:D1:6B:5C:62:22:06:9E:52:8B:DD:EE
            X509v3 Authority Key Identifier: 
                FC:79:D0:BE:55:BE:47:5E:EC:25:97:35:37:16:DE:EF:8D:E5:F2:B7
            X509v3 Key Usage: 
                Digital Signature, Non Repudiation, Key Encipherment, Data Encipherment
            X509v3 Extended Key Usage: 
                TLS Web Client Authentication
            X509v3 Basic Constraints: 
                CA:FALSE
            X509v3 Subject Alternative Name: 
                URI:urn:S2OPC:localhost, DNS:localhost
    Signature Algorithm: sha256WithRSAEncryption
    Signature Value:
        12:e1:c8:14:d5:ba:52:7f:87:b8:7d:52:71:42:20:dd:a9:f6:
        da:6e:dd:3e:02:40:05:99:ad:2a:b5:21:8e:07:c2:30:8c:39:
        96:c8:c3:ea:80:8f:4d:55:47:57:f4:99:9f:6a:ba:a9:f1:14:
        81:69:41:a4:c2:52:e8:7e:bc:75:6c:5e:0d:9a:96:bd:8e:33:
        b9:45:a7:a7:8d:6b:0b:49:01:05:b2:44:68:d5:20:5c:3d:44:
        9f:fe:09:2d:d8:42:cf:c8:bd:61:7a:a4:ac:15:ee:7c:ba:0c:
        b1:10:74:cb:d8:c0:84:01:a8:08:86:de:cf:8f:70:89:04:6a:
        ea:b5:8c:58:91:4a:58:cd:09:55:70:26:3c:0a:2a:a9:df:14:
        2b:f2:02:99:11:67:77:e3:f0:9b:3d:68:0f:30:1d:3d:21:32:
        84:c2:47:46:c2:5a:0b:6e:6d:ae:7c:1d:14:ff:7a:d0:6f:ce:
        e4:bf:a0:8d:b4:d8:0e:02:70:65:0f:62:11:5f:e2:1e:74:66:
        40:37:43:1e:18:9d:7a:7f:e7:79:0c:c5:3c:1d:0b:2f:23:44:
        e6:b3:9e:3b:83:18:21:87:b1:0d:e5:45:82:7e:71:98:82:3f:
        3e:6f:8d:e6:43:f2:d5:1a:e0:e1:dc:25:9d:e5:60:d6:d1:2e:
        01:eb:2b:33:e0:4c:75:da:52:9d:49:4e:37:dc:22:60:95:3f:
        ec:24:45:36:53:91:79:ac:91:40:2c:43:81:ff:39:90:5a:fb:
        bf:7c:66:8b:97:62:22:b2:e9:a3:73:e9:32:15:f0:03:e3:38:
        7e:99:52:21:cd:3b:20:62:07:e8:4f:0e:16:84:07:5d:53:c1:
        ff:43:0b:8c:c3:32:f1:78:94:4b:1f:3d:28:00:b3:d9:54:50:
        f8:26:a9:fb:4d:31:2f:c8:76:f5:de:3c:d7:68:e5:b8:c0:e2:
        e9:18:a7:b0:f1:33:1f:29:12:50:c3:bb:de:80:05:0f:a6:67:
        d7:9f:7b:92:b7:a5:57:66:6c:38:a2:e5:fd:d5:63:99:01:be:
        0f:2f:ee:23:de:6a:ba:20:3a:a5:dc:09:0f:4d:2a:aa:f3:19:
        94:6e:41:fe:55:7a:5d:c9:f0:df:49:03:c6:0c:f7:43:4f:84:
        bc:c4:8e:39:d6:24:c5:ab:3d:1a:bf:cd:37:c0:df:81:13:97:
        af:b7:bc:8f:1d:42:fb:a4:fc:18:4f:b9:35:0b:47:f9:17:bb:
        9b:04:0d:00:79:04:37:12:02:96:c5:54:39:7a:a5:89:0e:e2:
        9a:35:b1:85:90:5d:be:2f:61:d4:b9:ce:36:91:68:aa:ca:da:
        78:6b:16:d6:44:9a:c6:74
-----BEGIN CERTIFICATE-----
MIIGRzCCBC+gAwIBAgICIAIwDQYJKoZIhvcNAQELBQAwgagxCzAJBgNVBAYTAkZS
MQ8wDQYDVQQIDAZGcmFuY2UxETAPBgNVBAoMCFN5c3RlcmVsMTEwLwYDVQQDDChT
Mk9QQyBEZW1vIFVudHJ1c3RlZCBBdXRob3JpdHkgZm9yIFRlc3RzMSgwJgYJKoZI
hvcNAQkBFhlzMm9wYy1zdXBwb3J0QHN5c3RlcmVsLmZyMRgwFgYDVQQHDA9BaXgt
ZW4tUHJvdmVuY2UwHhcNMjUwMTIyMTY0MTEwWhcNMzUwMTIwMTY0MTEwWjCBhTEL
MAkGA1UEBhMCRlIxDzANBgNVBAgMBkZyYW5jZTEYMBYGA1UEBwwPQWl4LWVuLVBy
b3ZlbmNlMREwDwYDVQQKDAhTeXN0ZXJlbDE4MDYGA1UEAwwvUzJPUEMgRGVtbyBU
cnVzdGVkIENlcnRpZmljYXRlIGZvciBDbGllbnQgVGVzdHMwggIiMA0GCSqGSIb3
DQEBAQUAA4ICDwAwggIKAoICAQDF+2ZHvR1lrU9nFSlS9XIwOHdRiWNbEVOW55UI
fKMRjH0+OdWW5oZowT1F/ojTX3t138L7YYbRCHb2Y1ovI7DPnOXLVO1kEvMHGRPE
wuUAwNO/pZn7T0izskvCXYQ8nHGabEIZUXWnnomDYykRE9Zr7RqL2togD7TDefMc
sRuWQkM018DmV1nbpgMXHitFpQkP49KKezuSz7nZ1Q+bBTSxKHStubadT3Wj/G2s
oRQXXo6NUCh1twR6uf1vfkEM0BKNU3vPg6JfY0ahgnXtVxqlFwAbKT+KMi9YUoVJ
bw0txcDY+YArOUwqdr/gnFAoFw06k12JkWN8gDnH3lHpgaiRXbxYkh2v2e2NzQlP
leJrNzqSJcZtJxmgDGcOLDj/ZmhLOtlUWPqkbau+dFX8o12X0i7iMUomWooXWFGo
fRD+JwLCBvRE6387OmpRTijbZtfLr+y6+Qx0noFNVkuOFMCGNbHpC3iLbtBu0CVe
R1l4+KDgHcAapJh7csMCCyqezj3E9ygaSNVmehtY0BIC4+/X61glZOH4gNLK3XFu
1tEBNQ4rkOJCmd9wnoEaIp3O/CczfQm4xxvb2mvx8u/ZV4ugaU2DP6ugfYBFXQbs
ZZDy24gYiiU6F5g0YHcGRjE0mpIJtIarTNQasQhyXHqPQCe1+CyoRwGpjyRl6cIt
/ZcUywIDAQABo4GbMIGYMB0GA1UdDgQWBBTxb7JAf79hh1nRa1xiIgaeUovd7jAf
BgNVHSMEGDAWgBT8edC+Vb5HXuwllzU3Ft7vjeXytzALBgNVHQ8EBAMCBPAwEwYD
VR0lBAwwCgYIKwYBBQUHAwIwCQYDVR0TBAIwADApBgNVHREEIjAghhN1cm46UzJP
UEM6bG9jYWxob3N0gglsb2NhbGhvc3QwDQYJKoZIhvcNAQELBQADggIBABLhyBTV
ulJ/h7h9UnFCIN2p9tpu3T4CQAWZrSq1IY4HwjCMOZbIw+qAj01VR1f0mZ9quqnx
FIFpQaTCUuh+vHVsXg2alr2OM7lFp6eNawtJAQWyRGjVIFw9RJ/+CS3YQs/IvWF6
pKwV7ny6DLEQdMvYwIQBqAiG3s+PcIkEauq1jFiRSljNCVVwJjwKKqnfFCvyApkR
Z3fj8Js9aA8wHT0hMoTCR0bCWgtuba58HRT/etBvzuS/oI202A4CcGUPYhFf4h50
ZkA3Qx4YnXp/53kMxTwdCy8jROaznjuDGCGHsQ3lRYJ+cZiCPz5vjeZD8tUa4OHc
JZ3lYNbRLgHrKzPgTHXaUp1JTjfcImCVP+wkRTZTkXmskUAsQ4H/OZBa+798ZouX
YiKy6aNz6TIV8APjOH6ZUiHNOyBiB+hPDhaEB11Twf9DC4zDMvF4lEsfPSgAs9lU
UPgmqftNMS/IdvXePNdo5bjA4ukYp7DxMx8pElDDu96ABQ+mZ9efe5K3pVdmbDii
5f3VY5kBvg8v7iPearogOqXcCQ9NKqrzGZRuQf5Vel3J8N9JA8YM90NPhLzEjjnW
JMWrPRq/zTfA34ETl6+3vI8dQvuk/BhPuTULR/kXu5sEDQB5BDcSApbFVDl6pYkO
4po1sYWQXb4vYdS5zjaRaKrK2nhrFtZEmsZ0
-----END CERTIFICATE-----
