Certificate:
    Data:
        Version: 3 (0x2)
        Serial Number: 16384 (0x4000)
        Signature Algorithm: sha256WithRSAEncryption
        Issuer: C=FR, ST=France, L=Aix-en-Provence, O=Systerel, CN=S2OPC Demo Intermediate Server Authority for Tests
        Validity
            Not Before: Oct  3 09:29:35 2023 GMT
            Not After : Oct  2 09:29:35 2025 GMT
        Subject: C=FR, ST=France, L=Aix-en-Provence, O=Systerel, CN=S2OPC Demo Int Certificate for Server Tests
        Subject Public Key Info:
            Public Key Algorithm: rsaEncryption
                RSA Public-Key: (4096 bit)
                Modulus:
                    00:d7:fb:11:24:4c:b2:34:30:c3:a0:02:9d:bc:7a:
                    42:22:aa:ac:62:6e:e8:f4:a1:a5:fe:f5:fa:2a:19:
                    2c:ff:af:27:07:6e:a3:2f:f6:71:f8:fb:24:54:19:
                    99:d1:2c:b3:cc:15:64:e3:ed:c1:64:5c:68:f5:19:
                    88:50:d2:93:4e:91:02:6c:a5:03:2d:46:31:34:58:
                    8f:27:b0:a8:36:3b:72:64:0a:71:c9:6d:e2:28:66:
                    34:c9:0b:88:b6:99:04:07:aa:4f:6a:04:50:cf:85:
                    62:00:2d:a1:de:8a:11:99:96:bf:74:c0:28:b1:22:
                    ac:62:d0:60:47:fa:a8:b6:d6:80:7f:bb:4e:c0:3d:
                    13:5e:af:65:25:e9:f6:a4:b9:c9:a2:c7:8b:8a:ce:
                    a6:51:10:d4:49:22:f3:6f:51:b8:e5:28:19:51:5b:
                    80:3b:41:60:5b:d6:f8:0f:2b:12:37:f9:60:07:98:
                    e9:1f:8b:15:64:32:db:ae:17:e6:db:b1:89:4d:35:
                    78:72:5e:57:33:b3:9f:32:e8:81:53:52:1e:b0:c7:
                    ff:ba:2f:86:5b:57:de:08:41:cb:89:f6:d5:7d:7f:
                    db:3e:f3:0d:cd:46:23:4c:46:e9:31:9d:79:30:4c:
                    09:3e:67:fc:b2:74:6a:a9:3f:04:6f:7f:32:d9:71:
                    5e:0e:7d:25:95:a2:cd:cc:08:c9:0a:e5:53:09:11:
                    02:6f:04:ac:18:69:d6:2b:1d:25:e3:f2:df:17:29:
                    05:9a:99:5e:c5:26:af:d8:d8:27:6d:f3:fc:67:be:
                    0b:5c:dd:83:2e:69:be:99:5a:68:7f:ab:66:86:84:
                    75:d0:1e:77:bf:00:fe:d5:39:df:09:93:6f:18:b9:
                    d9:13:e7:7f:43:6a:ef:b3:b5:03:86:d7:1c:14:6d:
                    b7:43:39:27:cb:20:99:b2:4a:55:86:4e:3d:ae:d7:
                    fd:c8:e1:b3:c2:91:27:58:37:89:2d:9a:38:0d:39:
                    ff:9d:8d:8f:a6:30:f0:e3:76:f0:45:a7:78:66:ec:
                    e7:6a:c8:c5:48:58:03:54:cb:1d:24:a4:c2:87:7c:
                    0e:e5:7c:fa:40:07:d6:08:af:3c:d6:fc:79:37:ac:
                    1b:0a:a7:d0:ea:40:30:c2:02:b7:31:ef:ba:a4:d3:
                    88:ab:17:84:e8:28:62:63:92:9f:04:3e:ae:b7:94:
                    e4:e6:46:b2:96:11:3d:b8:32:fc:24:76:56:76:9d:
                    72:84:f5:b6:03:da:20:5f:03:d7:65:a8:f8:1f:6e:
                    db:6b:c7:0c:56:fd:fc:04:e1:81:46:ec:e2:e5:39:
                    97:4f:bd:ca:52:92:09:83:8d:2a:05:55:20:69:16:
                    f5:6b:d3
                Exponent: 65537 (0x10001)
        X509v3 extensions:
            X509v3 Subject Key Identifier: 
                24:F1:A1:FE:1C:0C:56:D7:AB:69:68:86:30:95:C1:2A:B0:E9:10:AB
            X509v3 Authority Key Identifier: 
                keyid:20:00:A6:24:2F:69:D2:18:A4:54:54:59:79:14:16:78:94:8B:A3:03

            X509v3 Key Usage: 
                Digital Signature, Non Repudiation, Key Encipherment, Data Encipherment
            X509v3 Extended Key Usage: 
                TLS Web Server Authentication
            X509v3 Basic Constraints: 
                CA:FALSE
            X509v3 Subject Alternative Name: 
                URI:urn:S2OPC:localhost, DNS:localhost
    Signature Algorithm: sha256WithRSAEncryption
         2f:91:d4:b8:99:3b:50:2a:21:da:90:df:89:73:d2:8c:14:b5:
         9c:80:11:64:8e:d2:7f:b3:6c:6d:fd:ef:a2:37:ee:8f:02:43:
         b6:86:7d:0c:ae:a3:6c:83:d4:18:23:70:d1:33:38:c5:36:1b:
         02:ed:15:7e:c1:c3:33:7b:d3:71:d8:2c:4c:2a:9e:6f:d5:58:
         3c:83:6a:19:13:6e:17:b5:9a:ae:f6:84:86:c1:2e:45:c3:7d:
         9c:47:eb:1f:c0:c6:8c:52:43:93:63:73:92:0b:3d:19:4e:73:
         a4:d3:a6:56:11:01:75:87:9d:40:d2:41:58:86:bd:df:2f:5a:
         4f:68:97:10:4d:7d:16:03:08:e2:0d:b3:53:31:a0:4e:5c:27:
         d9:7c:bc:ec:64:26:31:b5:46:4d:c9:f8:9e:bf:15:80:f8:8f:
         bd:15:2a:14:ca:87:9b:b2:0e:e7:38:07:75:08:92:b2:4e:cf:
         70:a1:98:db:61:bc:a4:8b:5d:1c:41:0c:db:1d:72:f5:2f:6f:
         06:06:34:ac:08:6b:3b:e5:b2:50:5d:da:e0:db:6e:de:be:0d:
         64:49:0d:36:bb:a7:1d:ce:62:e8:8d:a7:95:c2:0b:1c:3e:d0:
         01:54:bb:61:66:ad:b3:b8:eb:f6:6d:12:e7:cb:33:7c:08:28:
         45:64:cd:4e:6a:1d:cb:ee:ae:58:54:e3:b5:7b:55:95:8e:74:
         f4:22:b6:63:7b:74:42:d3:30:6f:50:c6:5a:de:85:88:d4:68:
         6e:3d:3c:c8:51:23:57:ba:5e:ba:dd:a9:c1:ed:e9:c4:0f:b0:
         4e:ae:41:e1:54:f1:8c:a2:6f:9f:79:7b:d4:c5:aa:14:04:1a:
         d3:1a:9c:8f:e9:f4:f9:44:9d:84:77:58:a9:5d:f8:6a:87:a0:
         80:38:b5:c2:f8:a6:ed:3c:c3:72:f6:dc:fa:61:d7:d1:b7:b9:
         3a:14:35:da:72:12:cd:e6:17:28:22:ec:12:d5:48:5f:2f:20:
         c9:cf:69:d7:9c:5b:07:56:e9:4a:d7:bc:c5:de:37:9b:c4:24:
         f4:a3:3d:c8:99:71:1f:c6:c3:e9:a2:09:1e:57:c4:c4:85:6a:
         e1:a9:6f:92:3c:83:05:31:ad:7f:e2:61:59:49:85:c7:d0:35:
         ec:f8:84:de:04:b3:4f:d2:95:b3:21:58:10:2a:ae:17:69:41:
         44:75:8c:bb:af:a6:9b:68:a2:95:88:37:ba:78:ba:7b:39:e6:
         cc:59:cf:9c:61:eb:b0:34:cd:0e:f4:dc:e6:ca:57:77:e8:2a:
         9b:67:98:52:4e:bc:21:66:34:a5:84:f7:bd:86:95:40:05:9a:
         08:25:45:46:3e:23:12:0e
-----BEGIN CERTIFICATE-----
MIIGIzCCBAugAwIBAgICQAAwDQYJKoZIhvcNAQELBQAwgYgxCzAJBgNVBAYTAkZS
MQ8wDQYDVQQIDAZGcmFuY2UxGDAWBgNVBAcMD0FpeC1lbi1Qcm92ZW5jZTERMA8G
A1UECgwIU3lzdGVyZWwxOzA5BgNVBAMMMlMyT1BDIERlbW8gSW50ZXJtZWRpYXRl
IFNlcnZlciBBdXRob3JpdHkgZm9yIFRlc3RzMB4XDTIzMTAwMzA5MjkzNVoXDTI1
MTAwMjA5MjkzNVowgYExCzAJBgNVBAYTAkZSMQ8wDQYDVQQIDAZGcmFuY2UxGDAW
BgNVBAcMD0FpeC1lbi1Qcm92ZW5jZTERMA8GA1UECgwIU3lzdGVyZWwxNDAyBgNV
BAMMK1MyT1BDIERlbW8gSW50IENlcnRpZmljYXRlIGZvciBTZXJ2ZXIgVGVzdHMw
ggIiMA0GCSqGSIb3DQEBAQUAA4ICDwAwggIKAoICAQDX+xEkTLI0MMOgAp28ekIi
qqxibuj0oaX+9foqGSz/rycHbqMv9nH4+yRUGZnRLLPMFWTj7cFkXGj1GYhQ0pNO
kQJspQMtRjE0WI8nsKg2O3JkCnHJbeIoZjTJC4i2mQQHqk9qBFDPhWIALaHeihGZ
lr90wCixIqxi0GBH+qi21oB/u07APRNer2Ul6fakucmix4uKzqZRENRJIvNvUbjl
KBlRW4A7QWBb1vgPKxI3+WAHmOkfixVkMtuuF+bbsYlNNXhyXlczs58y6IFTUh6w
x/+6L4ZbV94IQcuJ9tV9f9s+8w3NRiNMRukxnXkwTAk+Z/yydGqpPwRvfzLZcV4O
fSWVos3MCMkK5VMJEQJvBKwYadYrHSXj8t8XKQWamV7FJq/Y2Cdt8/xnvgtc3YMu
ab6ZWmh/q2aGhHXQHne/AP7VOd8Jk28YudkT539Dau+ztQOG1xwUbbdDOSfLIJmy
SlWGTj2u1/3I4bPCkSdYN4ktmjgNOf+djY+mMPDjdvBFp3hm7OdqyMVIWANUyx0k
pMKHfA7lfPpAB9YIrzzW/Hk3rBsKp9DqQDDCArcx77qk04irF4ToKGJjkp8EPq63
lOTmRrKWET24MvwkdlZ2nXKE9bYD2iBfA9dlqPgfbttrxwxW/fwE4YFG7OLlOZdP
vcpSkgmDjSoFVSBpFvVr0wIDAQABo4GbMIGYMB0GA1UdDgQWBBQk8aH+HAxW16tp
aIYwlcEqsOkQqzAfBgNVHSMEGDAWgBQgAKYkL2nSGKRUVFl5FBZ4lIujAzALBgNV
HQ8EBAMCBPAwEwYDVR0lBAwwCgYIKwYBBQUHAwEwCQYDVR0TBAIwADApBgNVHREE
IjAghhN1cm46UzJPUEM6bG9jYWxob3N0gglsb2NhbGhvc3QwDQYJKoZIhvcNAQEL
BQADggIBAC+R1LiZO1AqIdqQ34lz0owUtZyAEWSO0n+zbG3976I37o8CQ7aGfQyu
o2yD1BgjcNEzOMU2GwLtFX7BwzN703HYLEwqnm/VWDyDahkTbhe1mq72hIbBLkXD
fZxH6x/AxoxSQ5Njc5ILPRlOc6TTplYRAXWHnUDSQViGvd8vWk9olxBNfRYDCOIN
s1MxoE5cJ9l8vOxkJjG1Rk3J+J6/FYD4j70VKhTKh5uyDuc4B3UIkrJOz3ChmNth
vKSLXRxBDNsdcvUvbwYGNKwIazvlslBd2uDbbt6+DWRJDTa7px3OYuiNp5XCCxw+
0AFUu2FmrbO46/ZtEufLM3wIKEVkzU5qHcvurlhU47V7VZWOdPQitmN7dELTMG9Q
xlrehYjUaG49PMhRI1e6XrrdqcHt6cQPsE6uQeFU8Yyib595e9TFqhQEGtManI/p
9PlEnYR3WKld+GqHoIA4tcL4pu08w3L23Pph19G3uToUNdpyEs3mFygi7BLVSF8v
IMnPadecWwdW6UrXvMXeN5vEJPSjPciZcR/Gw+miCR5XxMSFauGpb5I8gwUxrX/i
YVlJhcfQNez4hN4Es0/SlbMhWBAqrhdpQUR1jLuvpptoopWIN7p4uns55sxZz5xh
67A0zQ703ObKV3foKptnmFJOvCFmNKWE972GlUAFmgglRUY+IxIO
-----END CERTIFICATE-----
