Certificate:
    Data:
        Version: 3 (0x2)
        Serial Number: 5 (0x5)
    Signature Algorithm: sha256WithRSAEncryption
        Issuer: C=FR, ST=IDF, L=PARIS, O=INGOPCS, OU=INGOPCS, CN=INGOPCS CA/emailAddress=ingopcs@systerel.fr
        Validity
            Not Before: Oct  3 08:08:18 2016 GMT
            Not After : Oct  3 08:08:18 2017 GMT
        Subject: C=FR, ST=IDF, L=PARIS, O=SYSTEREL, CN=INGOPCS
        Subject Public Key Info:
            Public Key Algorithm: rsaEncryption
                Public-Key: (2048 bit)
                Modulus:
                    00:cf:7e:fe:a1:af:52:21:61:ed:34:52:0f:52:9b:
                    69:d0:c9:09:3c:a1:0c:05:ed:f4:38:3a:0f:5c:a1:
                    ee:53:c8:2d:fb:eb:69:4a:61:11:d0:04:95:0f:ff:
                    7f:b8:76:0f:c2:9a:d7:26:8f:28:da:c1:a7:fe:6a:
                    34:52:49:cb:f1:11:84:b9:be:4d:f1:f3:63:29:14:
                    d3:34:69:4e:b4:48:75:cd:18:7e:27:8b:54:17:15:
                    71:d1:f7:48:bc:d9:ed:32:e2:36:2c:81:3b:94:6b:
                    73:48:54:09:e4:94:36:18:31:37:43:cb:b4:86:db:
                    8c:25:d3:49:89:35:26:06:b1:5a:29:e6:da:c1:f2:
                    87:72:48:9e:2d:5a:31:0b:b5:d5:93:fc:c3:13:bb:
                    7d:62:3c:a4:78:8d:7a:7e:2b:2e:85:13:22:21:60:
                    9a:c4:f3:31:65:10:83:28:4c:02:54:36:1b:7e:64:
                    25:3a:fe:98:52:e6:dc:a8:30:07:2a:03:d4:bb:ef:
                    56:e3:98:b8:ec:b2:0e:33:4f:1d:56:a1:fc:36:cc:
                    1b:9e:6c:9b:dd:9e:34:20:68:76:8b:5a:b7:ba:91:
                    b6:81:9d:77:61:35:67:e7:73:30:11:64:ad:0c:b2:
                    dd:7b:26:bf:94:1b:10:a8:63:f7:68:4f:c0:be:43:
                    35:95
                Exponent: 65537 (0x10001)
        X509v3 extensions:
            X509v3 Subject Key Identifier: 
                6D:F9:6E:70:89:A6:4E:DA:0D:0A:5A:05:18:11:D2:1B:DB:7D:68:64
            X509v3 Authority Key Identifier: 
                keyid:DB:18:0C:55:78:14:E7:CF:FD:86:88:27:B7:B0:0D:28:F5:72:AB:B2

            X509v3 Basic Constraints: critical
                CA:TRUE
            X509v3 Key Usage: 
                Certificate Sign, CRL Sign
    Signature Algorithm: sha256WithRSAEncryption
         67:1a:4d:29:b7:cf:df:27:4a:98:84:99:48:60:30:49:ad:2d:
         d4:ab:a9:fc:1d:3e:52:8c:52:1e:2d:18:14:9e:12:97:59:4d:
         d4:cf:9c:27:06:31:72:bf:4b:7a:dc:24:fd:1e:15:e4:34:3e:
         cb:38:1b:b3:81:0f:7d:23:15:7e:3f:5d:a3:2a:3f:4b:62:72:
         7a:48:e9:02:84:9b:47:51:99:75:ad:20:93:02:17:38:f6:1e:
         55:56:99:c7:a0:c7:71:2b:c7:c9:c9:19:0f:da:8c:60:75:07:
         d1:2d:28:f9:11:74:30:50:17:f6:24:4d:92:b7:27:29:48:09:
         f9:73:55:f9:66:c0:37:3a:2a:ac:5a:fb:21:2b:09:a3:9b:a0:
         ea:8d:7e:bd:fa:a0:44:f9:5d:fc:d3:ad:30:8f:79:93:fe:3f:
         90:ef:15:29:94:f4:cb:90:03:a1:6f:f4:37:2f:ea:0f:e7:97:
         aa:a4:9f:59:9d:de:79:6d:38:bb:13:c1:ce:1b:e0:fa:85:43:
         26:5b:54:d0:9a:9b:b2:5d:35:2b:68:d8:29:93:d3:16:c9:3e:
         5e:06:70:31:40:40:f5:99:2d:b5:24:85:06:49:d7:5e:8f:1e:
         74:74:92:af:93:cc:5c:52:b9:d6:dd:1c:c7:d1:dd:b4:21:7a:
         a8:61:75:bc:ff:fa:ec:3d:d4:40:a1:17:00:c5:db:19:b9:39:
         d6:7d:bb:d9:13:4f:c8:03:78:17:42:9e:2d:2a:95:5b:12:d5:
         74:92:cc:7a:14:11:ee:02:d2:b3:67:71:51:ab:a3:1e:0e:0e:
         a1:b6:c9:e8:ba:39:c9:b3:a1:55:3a:9d:16:b7:5d:01:a9:e6:
         8a:f3:8d:64:a0:c9:7f:48:1c:f3:60:4b:11:d7:30:69:39:c5:
         39:b8:e8:f4:da:5f:8a:9d:89:19:f2:ec:39:c2:68:7b:ec:41:
         e5:e3:2b:20:6e:72:aa:69:14:cb:f9:09:c0:5a:fd:94:0c:4e:
         d8:56:35:f7:50:3f:21:33:ec:17:0f:4a:cf:a2:84:1a:d1:1b:
         0a:fd:51:07:7e:0d:15:1b:3f:91:fa:1d:92:83:d1:e2:19:b8:
         b1:42:92:26:33:fd:08:83:56:fe:e2:27:96:0f:dd:46:9f:fb:
         0f:c4:16:f5:ef:18:a8:3e:d7:19:72:4f:c5:04:1a:9f:d3:f1:
         f5:fb:8a:f7:fa:5d:80:de:9a:88:57:44:51:19:49:da:27:1e:
         b4:a7:45:90:da:9d:72:ae:26:81:4b:46:f3:f3:84:73:fc:3f:
         ce:7a:d4:62:81:67:76:16:cd:31:f9:79:49:a1:e8:b4:a8:e5:
         aa:6c:a9:fe:8f:77:28:d9
-----BEGIN CERTIFICATE-----
MIIEtDCCApygAwIBAgIBBTANBgkqhkiG9w0BAQsFADCBiDELMAkGA1UEBhMCRlIx
DDAKBgNVBAgMA0lERjEOMAwGA1UEBwwFUEFSSVMxEDAOBgNVBAoMB0lOR09QQ1Mx
EDAOBgNVBAsMB0lOR09QQ1MxEzARBgNVBAMMCklOR09QQ1MgQ0ExIjAgBgkqhkiG
9w0BCQEWE2luZ29wY3NAc3lzdGVyZWwuZnIwHhcNMTYxMDAzMDgwODE4WhcNMTcx
MDAzMDgwODE4WjBQMQswCQYDVQQGEwJGUjEMMAoGA1UECAwDSURGMQ4wDAYDVQQH
DAVQQVJJUzERMA8GA1UECgwIU1lTVEVSRUwxEDAOBgNVBAMMB0lOR09QQ1MwggEi
MA0GCSqGSIb3DQEBAQUAA4IBDwAwggEKAoIBAQDPfv6hr1IhYe00Ug9Sm2nQyQk8
oQwF7fQ4Og9coe5TyC3762lKYRHQBJUP/3+4dg/Cmtcmjyjawaf+ajRSScvxEYS5
vk3x82MpFNM0aU60SHXNGH4ni1QXFXHR90i82e0y4jYsgTuUa3NIVAnklDYYMTdD
y7SG24wl00mJNSYGsVop5trB8odySJ4tWjELtdWT/MMTu31iPKR4jXp+Ky6FEyIh
YJrE8zFlEIMoTAJUNht+ZCU6/phS5tyoMAcqA9S771bjmLjssg4zTx1Wofw2zBue
bJvdnjQgaHaLWre6kbaBnXdhNWfnczARZK0Mst17Jr+UGxCoY/doT8C+QzWVAgMB
AAGjYDBeMB0GA1UdDgQWBBRt+W5wiaZO2g0KWgUYEdIb231oZDAfBgNVHSMEGDAW
gBTbGAxVeBTnz/2GiCe3sA0o9XKrsjAPBgNVHRMBAf8EBTADAQH/MAsGA1UdDwQE
AwIBBjANBgkqhkiG9w0BAQsFAAOCAgEAZxpNKbfP3ydKmISZSGAwSa0t1Kup/B0+
UoxSHi0YFJ4Sl1lN1M+cJwYxcr9Letwk/R4V5DQ+yzgbs4EPfSMVfj9doyo/S2Jy
ekjpAoSbR1GZda0gkwIXOPYeVVaZx6DHcSvHyckZD9qMYHUH0S0o+RF0MFAX9iRN
krcnKUgJ+XNV+WbANzoqrFr7ISsJo5ug6o1+vfqgRPld/NOtMI95k/4/kO8VKZT0
y5ADoW/0Ny/qD+eXqqSfWZ3eeW04uxPBzhvg+oVDJltU0Jqbsl01K2jYKZPTFsk+
XgZwMUBA9ZkttSSFBknXXo8edHSSr5PMXFK51t0cx9HdtCF6qGF1vP/67D3UQKEX
AMXbGbk51n272RNPyAN4F0KeLSqVWxLVdJLMehQR7gLSs2dxUaujHg4OobbJ6Lo5
ybOhVTqdFrddAanmivONZKDJf0gc82BLEdcwaTnFObjo9Npfip2JGfLsOcJoe+xB
5eMrIG5yqmkUy/kJwFr9lAxO2FY191A/ITPsFw9Kz6KEGtEbCv1RB34NFRs/kfod
koPR4hm4sUKSJjP9CINW/uInlg/dRp/7D8QW9e8YqD7XGXJPxQQan9Px9fuK9/pd
gN6aiFdEURlJ2icetKdFkNqdcq4mgUtG8/OEc/w/znrUYoFndhbNMfl5SaHotKjl
qmyp/o93KNk=
-----END CERTIFICATE-----
