Certificate:
    Data:
        Version: 3 (0x2)
        Serial Number: 1 (0x1)
    Signature Algorithm: sha256WithRSAEncryption
        Issuer: C=FR, ST=IDF, L=PARIS, O=INGOPCS, OU=INGOPCS, CN=INGOPCS CA/emailAddress=ingopcs@systerel.fr
        Validity
            Not Before: May 19 15:17:07 2016 GMT
            Not After : May 19 15:17:07 2017 GMT
        Subject: C=FR, ST=IDF, L=PARIS, O=SYSTEREL, CN=ingopcs.fr
        Subject Public Key Info:
            Public Key Algorithm: rsaEncryption
                Public-Key: (1024 bit)
                Modulus:
                    00:d1:3c:0c:6e:7a:a6:06:53:5a:05:e3:35:81:9c:
                    d1:f8:92:67:6d:76:f1:db:cf:fe:49:85:53:e2:20:
                    d6:58:de:eb:69:da:58:d5:9e:e0:39:b2:f3:15:ae:
                    44:c0:c3:65:ab:47:35:a5:af:da:c7:aa:e2:af:6f:
                    e2:1a:28:fc:1a:7a:38:52:73:a5:04:09:e0:50:ac:
                    28:b8:af:f6:5e:81:75:24:7a:53:84:6b:19:17:d5:
                    e7:9c:e3:8c:b8:af:45:68:9f:38:ab:b2:b0:1c:bd:
                    d5:c9:29:4d:00:99:4d:4b:a3:c0:7f:a8:7c:b0:ec:
                    0b:21:89:83:11:14:6e:1a:0f
                Exponent: 65537 (0x10001)
        X509v3 extensions:
            X509v3 Subject Key Identifier: 
                05:BE:21:BD:DD:C6:CF:29:0B:9B:62:32:41:58:0A:62:0F:C2:87:03
            X509v3 Authority Key Identifier: 
                keyid:DB:18:0C:55:78:14:E7:CF:FD:86:88:27:B7:B0:0D:28:F5:72:AB:B2

            X509v3 Basic Constraints: critical
                CA:TRUE
            X509v3 Key Usage: 
                Certificate Sign, CRL Sign
    Signature Algorithm: sha256WithRSAEncryption
         29:08:11:db:af:01:e5:60:4d:eb:88:57:f1:35:87:8e:5d:0f:
         06:f1:ce:e1:aa:aa:da:94:36:3a:c9:51:a0:c2:33:d2:68:c4:
         bd:32:75:76:02:43:08:ae:17:fe:20:a8:fa:06:2f:8f:eb:fe:
         0e:cc:e5:5d:c3:86:18:93:1c:af:a2:ab:79:b5:ff:38:ee:70:
         9f:d6:25:27:84:61:a7:06:aa:2d:4b:df:cb:c1:04:cd:18:1a:
         08:a8:03:f7:00:f8:b6:f1:7b:b4:78:60:98:ed:c0:d1:ff:81:
         99:d9:4e:e8:53:34:56:fd:21:7f:32:e0:0c:ba:d5:10:ae:ae:
         71:3b:61:be:d9:22:8a:5c:fe:e9:48:f1:9c:8c:c8:79:52:84:
         77:3f:a3:6c:11:9d:16:92:0f:66:9a:bf:79:ca:10:ba:7c:3c:
         3f:2b:26:e2:30:e6:86:ef:01:e8:fd:ac:ed:85:b5:7e:05:65:
         f5:5a:a4:38:60:e1:b8:2f:50:3c:c0:03:ad:f9:26:8c:15:c3:
         3e:8d:5c:60:20:20:80:33:ad:39:c8:c1:9c:0c:2c:9c:f3:ea:
         33:02:39:d0:89:81:a9:85:e7:aa:95:cc:3b:78:18:01:63:4a:
         c1:a6:8e:fa:93:3c:27:6b:be:b2:12:33:06:87:3e:02:18:ed:
         bb:88:11:22:00:ac:f7:30:88:ae:70:c5:96:2a:19:f9:46:03:
         bc:85:fc:84:1d:3e:59:29:75:8d:63:9f:7e:f5:b6:0a:62:42:
         22:3b:6b:8f:1b:14:63:32:24:8e:b2:f5:06:e2:ae:ad:d8:c2:
         a8:3b:e3:4e:88:ac:00:91:8e:f0:bc:f2:2b:2a:10:3e:14:7c:
         d3:3f:5a:57:66:73:a9:2a:4e:a2:bd:7e:21:88:3f:b2:46:fb:
         ce:6a:58:45:d8:ff:47:8d:ef:d7:57:b4:6d:fa:9e:02:84:ad:
         de:af:26:24:89:6f:96:ac:e2:1d:89:81:1b:79:bb:6f:20:ca:
         d4:55:ae:1d:9f:b1:40:68:c3:92:17:0f:61:c1:70:27:a7:db:
         b1:5c:56:3a:7b:3c:05:ee:b7:e5:40:ef:e8:52:11:09:b2:d4:
         a9:ed:60:ad:3c:a3:48:35:45:b1:8f:7e:32:5b:0f:eb:c1:c5:
         1d:41:1f:d7:22:25:3b:60:f9:f2:df:d1:b7:64:21:43:7b:e1:
         db:19:be:9d:a1:a8:81:4c:d5:51:4e:75:c0:8f:9e:d6:c8:2f:
         83:b0:b3:ce:56:3e:d5:00:a8:44:c9:a1:80:5b:ec:6d:93:15:
         39:03:e6:a1:ea:07:be:ef:01:93:0c:46:95:8e:35:78:ff:3c:
         3e:a5:5e:d3:72:2a:a5:12
-----BEGIN CERTIFICATE-----
MIIEMzCCAhugAwIBAgIBATANBgkqhkiG9w0BAQsFADCBiDELMAkGA1UEBhMCRlIx
DDAKBgNVBAgMA0lERjEOMAwGA1UEBwwFUEFSSVMxEDAOBgNVBAoMB0lOR09QQ1Mx
EDAOBgNVBAsMB0lOR09QQ1MxEzARBgNVBAMMCklOR09QQ1MgQ0ExIjAgBgkqhkiG
9w0BCQEWE2luZ29wY3NAc3lzdGVyZWwuZnIwHhcNMTYwNTE5MTUxNzA3WhcNMTcw
NTE5MTUxNzA3WjBTMQswCQYDVQQGEwJGUjEMMAoGA1UECAwDSURGMQ4wDAYDVQQH
DAVQQVJJUzERMA8GA1UECgwIU1lTVEVSRUwxEzARBgNVBAMMCmluZ29wY3MuZnIw
gZ8wDQYJKoZIhvcNAQEBBQADgY0AMIGJAoGBANE8DG56pgZTWgXjNYGc0fiSZ212
8dvP/kmFU+Ig1lje62naWNWe4Dmy8xWuRMDDZatHNaWv2seq4q9v4hoo/Bp6OFJz
pQQJ4FCsKLiv9l6BdSR6U4RrGRfV55zjjLivRWifOKuysBy91ckpTQCZTUujwH+o
fLDsCyGJgxEUbhoPAgMBAAGjYDBeMB0GA1UdDgQWBBQFviG93cbPKQubYjJBWApi
D8KHAzAfBgNVHSMEGDAWgBTbGAxVeBTnz/2GiCe3sA0o9XKrsjAPBgNVHRMBAf8E
BTADAQH/MAsGA1UdDwQEAwIBBjANBgkqhkiG9w0BAQsFAAOCAgEAKQgR268B5WBN
64hX8TWHjl0PBvHO4aqq2pQ2OslRoMIz0mjEvTJ1dgJDCK4X/iCo+gYvj+v+Dszl
XcOGGJMcr6KrebX/OO5wn9YlJ4RhpwaqLUvfy8EEzRgaCKgD9wD4tvF7tHhgmO3A
0f+BmdlO6FM0Vv0hfzLgDLrVEK6ucTthvtkiilz+6UjxnIzIeVKEdz+jbBGdFpIP
Zpq/ecoQunw8Pysm4jDmhu8B6P2s7YW1fgVl9VqkOGDhuC9QPMADrfkmjBXDPo1c
YCAggDOtOcjBnAwsnPPqMwI50ImBqYXnqpXMO3gYAWNKwaaO+pM8J2u+shIzBoc+
Ahjtu4gRIgCs9zCIrnDFlioZ+UYDvIX8hB0+WSl1jWOffvW2CmJCIjtrjxsUYzIk
jrL1BuKurdjCqDvjToisAJGO8LzyKyoQPhR80z9aV2ZzqSpOor1+IYg/skb7zmpY
Rdj/R43v11e0bfqeAoSt3q8mJIlvlqziHYmBG3m7byDK1FWuHZ+xQGjDkhcPYcFw
J6fbsVxWOns8Be635UDv6FIRCbLUqe1grTyjSDVFsY9+MlsP68HFHUEf1yIlO2D5
8t/Rt2QhQ3vh2xm+naGogUzVUU51wI+e1sgvg7CzzlY+1QCoRMmhgFvsbZMVOQPm
oeoHvu8BkwxGlY41eP88PqVe03IqpRI=
-----END CERTIFICATE-----
