Certificate:
    Data:
        Version: 3 (0x2)
        Serial Number: 6 (0x6)
    Signature Algorithm: sha256WithRSAEncryption
        Issuer: C=FR, ST=IDF, L=PARIS, O=INGOPCS, OU=INGOPCS, CN=INGOPCS CA/emailAddress=ingopcs@systerel.fr
        Validity
            Not Before: Oct  3 08:13:38 2016 GMT
            Not After : Oct  3 08:13:38 2017 GMT
        Subject: C=FR, ST=IDF, L=PARIS, O=SYSTEREL, CN=INGOPCS_SERVER
        Subject Public Key Info:
            Public Key Algorithm: rsaEncryption
                Public-Key: (2048 bit)
                Modulus:
                    00:ad:99:21:f9:24:63:9e:12:5c:0c:de:52:07:55:
                    f4:40:28:d6:5e:ae:ca:f1:68:67:82:3b:e4:46:b9:
                    77:e0:63:1d:64:50:99:53:b7:fe:46:7d:1a:fc:44:
                    9b:ca:6e:df:e1:1e:1e:6d:71:20:7c:33:e2:25:0f:
                    3c:66:87:5d:36:9a:1c:da:02:ef:c6:61:e7:3b:df:
                    01:c5:17:47:0f:2a:09:ea:50:0b:56:84:2f:cb:12:
                    57:79:91:7b:8d:eb:58:dc:6f:2f:95:11:e6:6c:29:
                    ba:57:a6:94:35:bc:3a:ab:1a:23:98:2f:53:1e:c7:
                    63:f4:94:ef:8b:6c:63:60:ea:19:4d:7c:a2:ef:d7:
                    77:b9:a3:2c:29:58:09:cf:39:d2:c2:ed:0d:bf:c4:
                    bf:d6:fb:d2:4b:f7:82:f8:d8:37:95:cb:51:96:4e:
                    1d:d0:a8:cd:d8:f2:a0:ef:2f:d0:d2:b1:26:eb:8f:
                    c0:0f:00:41:1f:36:2c:d4:e3:0a:0a:20:cd:e1:08:
                    ef:a6:9f:ae:de:8d:9f:75:68:38:30:65:69:c6:ea:
                    27:f1:ba:5a:ef:ac:79:0f:f1:8b:cb:cc:81:d7:ac:
                    aa:1f:ac:2a:ce:de:3a:cd:2a:61:d7:b6:2f:20:2c:
                    7b:ab:7d:f0:8e:e2:24:1a:0f:08:df:fd:b6:29:14:
                    cf:21
                Exponent: 65537 (0x10001)
        X509v3 extensions:
            X509v3 Subject Key Identifier: 
                A3:F8:E0:31:D1:F6:F4:12:BA:CE:4D:DF:0E:EB:62:DA:20:9D:3C:79
            X509v3 Authority Key Identifier: 
                keyid:DB:18:0C:55:78:14:E7:CF:FD:86:88:27:B7:B0:0D:28:F5:72:AB:B2

            X509v3 Basic Constraints: critical
                CA:TRUE
            X509v3 Key Usage: 
                Certificate Sign, CRL Sign
    Signature Algorithm: sha256WithRSAEncryption
         39:ce:25:d4:23:f2:65:c3:8a:6d:f5:73:c1:02:7c:69:97:cc:
         4e:5d:44:db:31:35:ac:78:21:80:25:3c:6b:bd:c5:01:74:64:
         63:0d:8b:17:85:3b:21:4a:78:66:f0:92:a2:53:16:f2:96:d3:
         42:df:15:cc:b4:43:39:2f:a9:14:d5:51:3a:91:dd:c6:11:2c:
         db:70:80:6e:9f:89:89:8e:91:1c:19:28:ff:5c:e9:13:96:49:
         a8:ae:11:ce:f0:4e:c6:45:f2:f4:ae:f6:18:7c:1f:04:4d:e6:
         ae:88:45:37:3f:9e:ea:33:d9:14:81:25:81:5a:c4:72:f4:ab:
         1f:e6:01:b9:9c:a0:1c:b6:83:00:57:28:ef:2f:58:83:39:f3:
         3d:43:3d:b7:af:bf:1e:06:95:ca:5f:a5:ee:5f:cd:53:24:a4:
         1e:ad:f1:ef:71:7c:90:f2:92:0b:e8:36:15:17:6d:f1:1d:34:
         7a:1e:29:16:02:a6:6b:24:85:78:c2:64:8b:f7:70:09:f2:8c:
         3e:0b:fd:ce:b7:ac:f2:f2:48:93:9b:cb:26:03:57:db:37:8d:
         e1:0e:ab:cf:30:43:29:52:fb:9c:5a:71:7f:cf:75:88:4c:69:
         72:53:ff:6d:ca:23:65:fc:da:67:09:21:18:09:39:e0:11:b1:
         95:f1:19:05:65:ef:a2:5d:ae:fe:39:3d:8a:67:26:1a:be:88:
         1e:98:26:42:58:fe:f4:73:42:3d:15:c3:fc:5f:a8:7b:ce:0b:
         8c:22:df:f4:09:01:78:42:e0:c6:0d:fe:b5:c8:8c:cc:80:05:
         08:0c:80:3c:49:35:a8:2d:76:28:77:b9:51:35:84:6d:fd:40:
         7d:49:fc:3f:aa:52:31:69:bf:db:be:b5:fc:58:80:fe:d2:fa:
         51:8e:e0:17:e4:2e:df:a8:72:e7:81:05:2a:47:e2:94:c8:d8:
         2c:98:58:87:74:96:df:b7:6f:6b:d1:c4:ab:1f:0e:aa:71:f4:
         82:96:d8:8a:99:50:ce:cc:29:37:b3:2e:af:54:eb:14:fa:bf:
         84:d4:51:9c:3e:9d:5f:34:34:57:0a:24:a1:6f:19:ef:a5:a7:
         df:4a:6f:c7:6f:31:70:21:18:8b:2e:39:42:1b:b3:62:89:f2:
         6f:71:26:4f:d7:96:2e:b5:13:03:0d:14:b5:26:2b:22:0b:fa:
         06:7b:a9:c1:25:54:58:d6:d5:70:a1:5f:71:5b:c0:0c:2d:40:
         58:09:65:2a:c3:72:e2:cb:c2:fd:fd:7b:20:68:13:10:82:9c:
         a8:8e:f8:44:cc:d8:c8:9a:8c:5b:e2:bf:89:3c:12:99:38:06:
         75:e8:24:55:cb:ef:6c:cc
-----BEGIN CERTIFICATE-----
MIIEuzCCAqOgAwIBAgIBBjANBgkqhkiG9w0BAQsFADCBiDELMAkGA1UEBhMCRlIx
DDAKBgNVBAgMA0lERjEOMAwGA1UEBwwFUEFSSVMxEDAOBgNVBAoMB0lOR09QQ1Mx
EDAOBgNVBAsMB0lOR09QQ1MxEzARBgNVBAMMCklOR09QQ1MgQ0ExIjAgBgkqhkiG
9w0BCQEWE2luZ29wY3NAc3lzdGVyZWwuZnIwHhcNMTYxMDAzMDgxMzM4WhcNMTcx
MDAzMDgxMzM4WjBXMQswCQYDVQQGEwJGUjEMMAoGA1UECAwDSURGMQ4wDAYDVQQH
DAVQQVJJUzERMA8GA1UECgwIU1lTVEVSRUwxFzAVBgNVBAMMDklOR09QQ1NfU0VS
VkVSMIIBIjANBgkqhkiG9w0BAQEFAAOCAQ8AMIIBCgKCAQEArZkh+SRjnhJcDN5S
B1X0QCjWXq7K8WhngjvkRrl34GMdZFCZU7f+Rn0a/ESbym7f4R4ebXEgfDPiJQ88
ZoddNpoc2gLvxmHnO98BxRdHDyoJ6lALVoQvyxJXeZF7jetY3G8vlRHmbCm6V6aU
Nbw6qxojmC9THsdj9JTvi2xjYOoZTXyi79d3uaMsKVgJzznSwu0Nv8S/1vvSS/eC
+Ng3lctRlk4d0KjN2PKg7y/Q0rEm64/ADwBBHzYs1OMKCiDN4Qjvpp+u3o2fdWg4
MGVpxuon8bpa76x5D/GLy8yB16yqH6wqzt46zSph17YvICx7q33wjuIkGg8I3/22
KRTPIQIDAQABo2AwXjAdBgNVHQ4EFgQUo/jgMdH29BK6zk3fDuti2iCdPHkwHwYD
VR0jBBgwFoAU2xgMVXgU58/9hognt7ANKPVyq7IwDwYDVR0TAQH/BAUwAwEB/zAL
BgNVHQ8EBAMCAQYwDQYJKoZIhvcNAQELBQADggIBADnOJdQj8mXDim31c8ECfGmX
zE5dRNsxNax4IYAlPGu9xQF0ZGMNixeFOyFKeGbwkqJTFvKW00LfFcy0QzkvqRTV
UTqR3cYRLNtwgG6fiYmOkRwZKP9c6ROWSaiuEc7wTsZF8vSu9hh8HwRN5q6IRTc/
nuoz2RSBJYFaxHL0qx/mAbmcoBy2gwBXKO8vWIM58z1DPbevvx4Glcpfpe5fzVMk
pB6t8e9xfJDykgvoNhUXbfEdNHoeKRYCpmskhXjCZIv3cAnyjD4L/c63rPLySJOb
yyYDV9s3jeEOq88wQylS+5xacX/PdYhMaXJT/23KI2X82mcJIRgJOeARsZXxGQVl
76Jdrv45PYpnJhq+iB6YJkJY/vRzQj0Vw/xfqHvOC4wi3/QJAXhC4MYN/rXIjMyA
BQgMgDxJNagtdih3uVE1hG39QH1J/D+qUjFpv9u+tfxYgP7S+lGO4BfkLt+ocueB
BSpH4pTI2CyYWId0lt+3b2vRxKsfDqpx9IKW2IqZUM7MKTezLq9U6xT6v4TUUZw+
nV80NFcKJKFvGe+lp99Kb8dvMXAhGIsuOUIbs2KJ8m9xJk/Xli61EwMNFLUmKyIL
+gZ7qcElVFjW1XChX3FbwAwtQFgJZSrDcuLLwv39eyBoExCCnKiO+ETM2MiajFvi
v4k8Epk4BnXoJFXL72zM
-----END CERTIFICATE-----
