Certificate:
    Data:
        Version: 3 (0x2)
        Serial Number: 2 (0x2)
    Signature Algorithm: sha256WithRSAEncryption
        Issuer: C=FR, ST=IDF, L=PARIS, O=INGOPCS, OU=INGOPCS, CN=INGOPCS CA/emailAddress=ingopcs@systerel.fr
        Validity
            Not Before: May 22 12:44:13 2017 GMT
            Not After : May 22 12:44:13 2018 GMT
        Subject: C=FR, ST=IDF, L=PARIS, O=SYSTEREL, CN=INGOPCS_SERVER
        Subject Public Key Info:
            Public Key Algorithm: rsaEncryption
                Public-Key: (2048 bit)
                Modulus:
                    00:ad:99:21:f9:24:63:9e:12:5c:0c:de:52:07:55:
                    f4:40:28:d6:5e:ae:ca:f1:68:67:82:3b:e4:46:b9:
                    77:e0:63:1d:64:50:99:53:b7:fe:46:7d:1a:fc:44:
                    9b:ca:6e:df:e1:1e:1e:6d:71:20:7c:33:e2:25:0f:
                    3c:66:87:5d:36:9a:1c:da:02:ef:c6:61:e7:3b:df:
                    01:c5:17:47:0f:2a:09:ea:50:0b:56:84:2f:cb:12:
                    57:79:91:7b:8d:eb:58:dc:6f:2f:95:11:e6:6c:29:
                    ba:57:a6:94:35:bc:3a:ab:1a:23:98:2f:53:1e:c7:
                    63:f4:94:ef:8b:6c:63:60:ea:19:4d:7c:a2:ef:d7:
                    77:b9:a3:2c:29:58:09:cf:39:d2:c2:ed:0d:bf:c4:
                    bf:d6:fb:d2:4b:f7:82:f8:d8:37:95:cb:51:96:4e:
                    1d:d0:a8:cd:d8:f2:a0:ef:2f:d0:d2:b1:26:eb:8f:
                    c0:0f:00:41:1f:36:2c:d4:e3:0a:0a:20:cd:e1:08:
                    ef:a6:9f:ae:de:8d:9f:75:68:38:30:65:69:c6:ea:
                    27:f1:ba:5a:ef:ac:79:0f:f1:8b:cb:cc:81:d7:ac:
                    aa:1f:ac:2a:ce:de:3a:cd:2a:61:d7:b6:2f:20:2c:
                    7b:ab:7d:f0:8e:e2:24:1a:0f:08:df:fd:b6:29:14:
                    cf:21
                Exponent: 65537 (0x10001)
        X509v3 extensions:
            X509v3 Subject Key Identifier: 
                A3:F8:E0:31:D1:F6:F4:12:BA:CE:4D:DF:0E:EB:62:DA:20:9D:3C:79
            X509v3 Authority Key Identifier: 
                keyid:78:A2:AE:09:C2:28:75:23:D9:B2:0F:7F:B3:12:93:EC:F5:CE:2D:14

            X509v3 Basic Constraints: critical
                CA:TRUE
            X509v3 Key Usage: 
                Certificate Sign, CRL Sign
    Signature Algorithm: sha256WithRSAEncryption
         33:75:d0:fe:f5:8f:5d:7f:ce:a8:ac:5a:7a:a9:f9:4a:ac:ab:
         12:39:25:f0:29:8e:e5:b8:f8:1d:f1:88:e1:49:df:1e:77:71:
         53:94:37:be:f9:47:dc:d9:0d:c1:2b:d4:2a:e1:85:e7:15:d7:
         63:3b:a4:38:6d:99:e3:9e:11:c0:12:b9:98:a2:f1:27:a6:e5:
         15:f7:fa:65:73:46:51:83:32:f0:0a:e4:32:0d:03:d4:61:f6:
         bf:f9:92:40:e5:40:93:c6:bf:98:f2:47:47:f9:a2:08:0e:a6:
         39:1d:6f:d3:4f:85:a7:da:ae:1c:1c:10:c2:11:29:95:05:42:
         f8:97:15:ef:2f:c1:1d:2c:73:98:2b:db:be:ac:58:62:7b:13:
         c8:70:2e:e9:da:cc:cd:4b:8b:90:3b:c9:83:4b:eb:4c:89:8d:
         8a:70:b3:23:da:dd:7d:b8:23:51:46:c0:ed:0a:a2:6e:da:61:
         1a:0f:b1:c5:ea:7c:d9:79:28:31:7d:67:35:94:5d:be:16:fb:
         72:c5:47:7b:94:03:a7:e3:4e:75:28:09:0e:37:54:3e:98:8f:
         df:3f:c7:26:69:99:1c:81:61:b6:e8:cd:92:31:c9:87:a8:bd:
         35:54:1d:64:6a:6f:f3:14:6b:22:9f:53:b8:c6:50:df:69:d1:
         aa:7b:29:20:76:25:c4:43:a8:f4:fc:87:cb:84:8a:bc:59:37:
         c1:b2:30:d9:b9:40:38:6f:11:c3:53:18:65:9e:f6:71:24:24:
         f7:d2:19:43:fe:7a:d3:b6:ac:be:15:cd:90:3a:33:b3:96:c7:
         55:66:19:67:a3:10:26:57:62:20:a5:47:b4:3e:3f:8f:2e:4d:
         f1:3c:14:f8:25:0c:02:a5:6b:4a:dd:9f:c1:f5:03:bc:7d:8a:
         85:73:90:9d:8e:9d:3c:5a:00:8b:e8:17:0b:52:87:11:cc:00:
         84:07:2a:d6:83:9b:52:88:1e:61:3c:9c:81:21:41:5a:4c:8b:
         cd:d6:e4:d4:48:61:6e:00:3a:dd:d1:66:72:7c:19:87:35:60:
         1a:bd:25:26:b2:fe:9c:d3:15:8d:f9:b2:58:ef:31:01:f8:dd:
         ea:f2:b3:6e:8d:7f:63:48:de:a7:0e:3f:5d:69:f8:e1:b4:eb:
         e8:15:64:05:f5:56:92:e9:34:26:30:26:4f:1d:c9:48:a4:09:
         5d:a1:88:cd:50:e7:f8:cd:30:fc:e5:23:2c:b5:64:dc:0b:ef:
         2d:76:1e:12:f5:dd:e9:ac:93:a8:1f:67:fa:e3:0d:25:1a:59:
         f5:78:dd:6a:aa:7d:3e:db:c8:13:87:da:e9:d6:7e:e1:48:d1:
         66:2c:a1:39:44:6a:8d:e3
-----BEGIN CERTIFICATE-----
MIIEuzCCAqOgAwIBAgIBAjANBgkqhkiG9w0BAQsFADCBiDELMAkGA1UEBhMCRlIx
DDAKBgNVBAgMA0lERjEOMAwGA1UEBwwFUEFSSVMxEDAOBgNVBAoMB0lOR09QQ1Mx
EDAOBgNVBAsMB0lOR09QQ1MxEzARBgNVBAMMCklOR09QQ1MgQ0ExIjAgBgkqhkiG
9w0BCQEWE2luZ29wY3NAc3lzdGVyZWwuZnIwHhcNMTcwNTIyMTI0NDEzWhcNMTgw
NTIyMTI0NDEzWjBXMQswCQYDVQQGEwJGUjEMMAoGA1UECAwDSURGMQ4wDAYDVQQH
DAVQQVJJUzERMA8GA1UECgwIU1lTVEVSRUwxFzAVBgNVBAMMDklOR09QQ1NfU0VS
VkVSMIIBIjANBgkqhkiG9w0BAQEFAAOCAQ8AMIIBCgKCAQEArZkh+SRjnhJcDN5S
B1X0QCjWXq7K8WhngjvkRrl34GMdZFCZU7f+Rn0a/ESbym7f4R4ebXEgfDPiJQ88
ZoddNpoc2gLvxmHnO98BxRdHDyoJ6lALVoQvyxJXeZF7jetY3G8vlRHmbCm6V6aU
Nbw6qxojmC9THsdj9JTvi2xjYOoZTXyi79d3uaMsKVgJzznSwu0Nv8S/1vvSS/eC
+Ng3lctRlk4d0KjN2PKg7y/Q0rEm64/ADwBBHzYs1OMKCiDN4Qjvpp+u3o2fdWg4
MGVpxuon8bpa76x5D/GLy8yB16yqH6wqzt46zSph17YvICx7q33wjuIkGg8I3/22
KRTPIQIDAQABo2AwXjAdBgNVHQ4EFgQUo/jgMdH29BK6zk3fDuti2iCdPHkwHwYD
VR0jBBgwFoAUeKKuCcIodSPZsg9/sxKT7PXOLRQwDwYDVR0TAQH/BAUwAwEB/zAL
BgNVHQ8EBAMCAQYwDQYJKoZIhvcNAQELBQADggIBADN10P71j11/zqisWnqp+Uqs
qxI5JfApjuW4+B3xiOFJ3x53cVOUN775R9zZDcEr1CrhhecV12M7pDhtmeOeEcAS
uZii8Sem5RX3+mVzRlGDMvAK5DINA9Rh9r/5kkDlQJPGv5jyR0f5oggOpjkdb9NP
hafarhwcEMIRKZUFQviXFe8vwR0sc5gr276sWGJ7E8hwLunazM1Li5A7yYNL60yJ
jYpwsyPa3X24I1FGwO0Kom7aYRoPscXqfNl5KDF9ZzWUXb4W+3LFR3uUA6fjTnUo
CQ43VD6Yj98/xyZpmRyBYbbozZIxyYeovTVUHWRqb/MUayKfU7jGUN9p0ap7KSB2
JcRDqPT8h8uEirxZN8GyMNm5QDhvEcNTGGWe9nEkJPfSGUP+etO2rL4VzZA6M7OW
x1VmGWejECZXYiClR7Q+P48uTfE8FPglDAKla0rdn8H1A7x9ioVzkJ2OnTxaAIvo
FwtShxHMAIQHKtaDm1KIHmE8nIEhQVpMi83W5NRIYW4AOt3RZnJ8GYc1YBq9JSay
/pzTFY35sljvMQH43erys26Nf2NI3qcOP11p+OG06+gVZAX1VpLpNCYwJk8dyUik
CV2hiM1Q5/jNMPzlIyy1ZNwL7y12HhL13emsk6gfZ/rjDSUaWfV43WqqfT7byBOH
2unWfuFI0WYsoTlEao3j
-----END CERTIFICATE-----
