Certificate:
    Data:
        Version: 3 (0x2)
        Serial Number: 250 (0xfa)
    Signature Algorithm: sha256WithRSAEncryption
        Issuer: C=FR, ST=France, O=Systerel, CN=S2OPC Unit Test Certificate Authority
        Validity
            Not Before: Oct  2 17:35:55 2018 GMT
            Not After : Sep  8 17:35:55 2118 GMT
        Subject: C=FR, ST=France, O=Systerel, CN=S2OPC Unit Test Server Certificate
        Subject Public Key Info:
            Public Key Algorithm: rsaEncryption
                Public-Key: (2048 bit)
                Modulus:
                    00:c4:0d:18:28:29:6b:f4:80:dd:95:87:12:26:d2:
                    f6:e2:8e:95:b9:92:30:c4:f8:96:f1:e5:0b:33:7f:
                    67:32:15:c3:20:26:2d:86:53:78:f4:d7:52:09:33:
                    b3:c9:4a:0f:83:89:bf:8f:ff:e9:f4:22:5c:c8:6a:
                    6a:97:1f:5d:71:ed:6a:69:10:55:da:3d:24:4b:00:
                    63:d2:2f:5a:2d:88:e1:c2:f6:d8:06:ef:67:56:15:
                    20:20:fb:68:04:40:d5:90:84:43:97:18:93:02:64:
                    5b:a9:42:18:14:1f:93:e3:09:e8:97:05:94:35:76:
                    b8:f4:1b:03:a0:ff:ec:aa:14:b0:37:47:a7:8c:ca:
                    ea:1f:87:bc:74:9d:33:95:0b:93:1b:49:4c:b4:eb:
                    df:f6:a5:63:51:88:4c:8d:cb:30:68:f3:35:75:e2:
                    7f:26:85:08:f8:4c:26:64:34:03:37:c2:fb:55:ce:
                    51:93:8c:45:be:98:51:83:66:68:72:4e:ae:76:f3:
                    3a:24:55:70:5b:23:08:d1:6d:2c:90:90:85:20:de:
                    b2:8e:4d:f9:ff:db:68:02:85:e3:3b:ef:e4:c6:c2:
                    e6:82:8b:17:a1:91:5d:ff:7f:65:23:51:8a:4c:80:
                    74:36:1a:0b:e6:88:90:a1:a3:72:f0:44:e8:d6:a6:
                    af:0b
                Exponent: 65537 (0x10001)
        X509v3 extensions:
            X509v3 Subject Key Identifier: 
                91:36:57:B2:DA:9B:58:47:DA:8E:B1:6F:A9:3D:C6:58:17:B1:4C:DB
            X509v3 Authority Key Identifier: 
                keyid:6C:5B:7A:23:D1:20:80:C0:77:3E:80:82:83:36:49:48:F7:7B:A6:C6

            X509v3 Basic Constraints: critical
                CA:TRUE
            X509v3 Key Usage: 
                Certificate Sign, CRL Sign
            X509v3 Subject Alternative Name: 
                URI:urn:S2OPC:localhost, DNS:localhost
            Netscape Comment: 
                OpenSSL Generated Certificate
    Signature Algorithm: sha256WithRSAEncryption
         79:dd:bc:41:9e:01:7a:b3:7f:0b:4a:9b:cc:5c:af:93:2b:b6:
         a2:b4:1e:ac:1d:dc:55:e5:97:1e:f4:d8:f0:5c:3e:fb:96:4a:
         d8:f2:13:37:04:2c:08:95:bc:45:1f:d7:89:a4:3d:fd:58:e7:
         fa:15:3e:92:0d:6a:20:a5:27:6c:fc:29:24:e9:bc:6b:f4:9f:
         99:d7:e4:d3:fb:d3:fa:b9:a8:c1:f5:78:01:02:c9:39:a6:4d:
         0d:a0:a9:03:6e:1d:d1:eb:ab:f0:9b:76:4c:49:4e:6d:c4:3b:
         b7:b2:86:28:01:0f:87:1e:74:be:02:5c:a7:3a:ce:00:b2:44:
         ae:26:c9:f8:cf:a4:b0:40:d5:37:75:86:61:0a:eb:b0:09:b6:
         bc:af:9b:0b:6d:9c:2b:93:4b:99:69:f0:8a:ab:6a:db:5b:7c:
         05:fe:db:b3:47:76:f2:d3:82:81:bb:0d:20:d0:d0:bb:85:0d:
         2c:13:86:67:bc:e0:e7:2f:85:b3:cf:5c:37:c8:fe:de:33:b6:
         13:7a:c8:16:92:37:33:ed:19:b8:e1:3a:0f:71:32:cd:e8:b6:
         44:57:52:cb:69:37:62:a9:f3:ea:e1:5c:66:90:32:01:99:a4:
         c0:e2:dc:3b:a4:2d:0a:bf:7f:02:03:68:ff:70:d9:b1:ef:bf:
         92:7f:56:aa
-----BEGIN CERTIFICATE-----
MIID+DCCAuCgAwIBAgICAPowDQYJKoZIhvcNAQELBQAwYTELMAkGA1UEBhMCRlIx
DzANBgNVBAgTBkZyYW5jZTERMA8GA1UEChMIU3lzdGVyZWwxLjAsBgNVBAMTJVMy
T1BDIFVuaXQgVGVzdCBDZXJ0aWZpY2F0ZSBBdXRob3JpdHkwIBcNMTgxMDAyMTcz
NTU1WhgPMjExODA5MDgxNzM1NTVaMF4xCzAJBgNVBAYTAkZSMQ8wDQYDVQQIEwZG
cmFuY2UxETAPBgNVBAoTCFN5c3RlcmVsMSswKQYDVQQDEyJTMk9QQyBVbml0IFRl
c3QgU2VydmVyIENlcnRpZmljYXRlMIIBIjANBgkqhkiG9w0BAQEFAAOCAQ8AMIIB
CgKCAQEAxA0YKClr9IDdlYcSJtL24o6VuZIwxPiW8eULM39nMhXDICYthlN49NdS
CTOzyUoPg4m/j//p9CJcyGpqlx9dce1qaRBV2j0kSwBj0i9aLYjhwvbYBu9nVhUg
IPtoBEDVkIRDlxiTAmRbqUIYFB+T4wnolwWUNXa49BsDoP/sqhSwN0enjMrqH4e8
dJ0zlQuTG0lMtOvf9qVjUYhMjcswaPM1deJ/JoUI+EwmZDQDN8L7Vc5Rk4xFvphR
g2Zock6udvM6JFVwWyMI0W0skJCFIN6yjk35/9toAoXjO+/kxsLmgosXoZFd/39l
I1GKTIB0NhoL5oiQoaNy8ETo1qavCwIDAQABo4G6MIG3MB0GA1UdDgQWBBSRNley
2ptYR9qOsW+pPcZYF7FM2zAfBgNVHSMEGDAWgBRsW3oj0SCAwHc+gIKDNklI93um
xjAPBgNVHRMBAf8EBTADAQH/MAsGA1UdDwQEAwIBBjApBgNVHREEIjAghhN1cm46
UzJPUEM6bG9jYWxob3N0gglsb2NhbGhvc3QwLAYJYIZIAYb4QgENBB8WHU9wZW5T
U0wgR2VuZXJhdGVkIENlcnRpZmljYXRlMA0GCSqGSIb3DQEBCwUAA4IBAQB53bxB
ngF6s38LSpvMXK+TK7aitB6sHdxV5Zce9NjwXD77lkrY8hM3BCwIlbxFH9eJpD39
WOf6FT6SDWogpSds/Ckk6bxr9J+Z1+TT+9P6uajB9XgBAsk5pk0NoKkDbh3R66vw
m3ZMSU5txDu3soYoAQ+HHnS+AlynOs4AskSuJsn4z6SwQNU3dYZhCuuwCba8r5sL
bZwrk0uZafCKq2rbW3wF/tuzR3by04KBuw0g0NC7hQ0sE4ZnvODnL4Wzz1w3yP7e
M7YTesgWkjcz7Rm44ToPcTLN6LZEV1LLaTdiqfPq4VxmkDIBmaTA4tw7pC0Kv38C
A2j/cNmx77+Sf1aq
-----END CERTIFICATE-----
