Certificate:
    Data:
        Version: 3 (0x2)
        Serial Number: 90 (0x5a)
    Signature Algorithm: sha256WithRSAEncryption
        Issuer: C=FR, ST=France, O=Systerel, CN=S2OPC Century Certificate Authority for Tests/emailAddress=s2opc-support@systerel.fr
        Validity
            Not Before: Nov 19 16:06:30 2019 GMT
            Not After : Oct 26 16:06:30 2119 GMT
        Subject: C=FR, ST=France, O=Systerel, CN=S2OPC Century Certificate for Test Clients
        Subject Public Key Info:
            Public Key Algorithm: rsaEncryption
                Public-Key: (4096 bit)
                Modulus:
                    00:d5:5b:6a:16:7c:cb:47:5e:a4:82:8d:48:80:63:
                    eb:fb:6a:9e:1d:e4:32:62:85:ec:0f:ae:e9:b3:48:
                    99:97:11:01:25:41:1f:1d:63:ed:fb:cd:56:c7:76:
                    09:72:fb:6d:2b:47:39:a2:a8:8e:b7:c9:9b:b1:60:
                    d2:21:83:a0:97:18:0f:01:bf:76:44:cc:43:88:56:
                    47:d5:a3:be:4e:12:3b:06:88:9a:05:28:0b:92:76:
                    c3:14:86:79:cb:72:bd:7f:06:5a:50:71:2e:41:d4:
                    b6:65:81:6d:b9:1d:fc:6b:a3:dc:dc:a2:dd:e8:5c:
                    59:ba:44:ef:2c:4c:6f:3a:ac:b7:89:8b:24:60:05:
                    a5:5f:cf:36:d2:bc:04:77:c2:73:4e:03:bd:80:94:
                    f7:51:26:c5:6d:93:c2:7b:ed:17:34:51:fb:cb:b3:
                    11:d2:fe:fc:ed:f9:01:09:d0:c3:c9:c5:58:b3:db:
                    b2:d9:65:60:4a:00:71:3f:10:b6:f3:6a:4d:df:de:
                    c5:6b:c8:50:f6:28:8f:18:48:5f:ed:b0:ca:da:92:
                    e5:9d:12:5a:24:54:52:af:31:60:c6:0b:86:6b:70:
                    7f:99:23:75:35:7d:7a:4d:56:0b:ec:e0:83:d9:2d:
                    e0:7b:0b:a5:cb:f4:f4:90:b5:df:38:2a:f1:f8:73:
                    a3:20:ee:66:55:d8:17:a0:b1:49:cb:24:57:0a:ac:
                    0d:da:97:ca:53:e2:ca:fb:4c:6a:d9:22:a4:5f:39:
                    12:5c:81:81:ee:42:3d:ed:4f:7b:a8:a7:7a:fb:ae:
                    16:49:fd:8e:37:e2:f5:29:d2:a5:9f:08:e4:69:61:
                    05:2c:f7:9c:80:eb:15:52:c1:6f:00:17:13:72:8a:
                    da:d6:0b:f6:a2:ef:ef:99:2d:78:b8:99:0d:94:fa:
                    57:8e:08:a4:fa:fd:12:44:4b:ae:a1:23:4d:da:0b:
                    b3:b0:87:92:91:9b:4e:5d:7f:1b:5d:c3:3b:4b:e9:
                    11:1c:ba:a3:59:2a:95:ee:d8:6a:cf:50:2d:35:45:
                    72:68:79:81:c9:aa:09:2b:b1:0e:54:21:76:e4:ff:
                    4a:30:86:26:a9:a1:cf:ed:0f:57:14:bd:4b:9b:de:
                    7d:8c:41:4b:ef:d2:12:b6:f5:6e:6e:12:a6:38:f4:
                    01:8b:f1:8e:34:88:b6:21:26:3e:a6:cd:4c:98:04:
                    51:fb:0c:20:40:72:25:4e:ec:b5:05:34:f9:e8:9e:
                    70:ef:a9:0c:4a:6f:fe:b3:8a:f4:2b:22:b7:4b:0e:
                    21:9b:57:a7:33:2d:35:4e:03:ad:4b:e7:76:eb:78:
                    0a:93:53:9c:c6:a8:fa:1a:19:84:f4:ca:91:c1:19:
                    d1:cd:f9
                Exponent: 65537 (0x10001)
        X509v3 extensions:
            X509v3 Subject Key Identifier: 
                18:7E:85:E0:35:C8:C8:25:AD:5C:A8:67:68:6A:B3:39:50:3C:DD:19
            X509v3 Authority Key Identifier: 
                keyid:7A:46:CB:D2:2F:30:A4:FF:67:29:13:39:3F:9C:02:BF:03:D0:72:82

            X509v3 Key Usage: 
                Digital Signature, Non Repudiation, Key Encipherment, Data Encipherment
            X509v3 Extended Key Usage: 
                TLS Web Client Authentication
            X509v3 Basic Constraints: 
                CA:FALSE
            X509v3 Subject Alternative Name: 
                URI:urn:S2OPC:localhost, DNS:localhost
    Signature Algorithm: sha256WithRSAEncryption
         9c:4a:52:e1:64:c8:15:f6:e1:69:f2:cc:c4:00:9a:08:cf:b3:
         74:bd:18:67:56:16:fe:3f:d4:26:27:a0:d3:de:23:5c:56:15:
         3d:71:ae:62:e6:f8:07:ab:3f:40:93:50:e6:42:bc:aa:39:43:
         35:a5:98:06:9e:3c:88:d9:59:25:72:9c:0d:ec:b5:6c:5e:d5:
         75:9c:8d:40:2d:93:78:24:23:80:8c:db:c1:aa:5b:1e:1b:28:
         b6:90:e9:9c:d6:01:a2:c5:3c:57:12:a9:ec:58:d0:c3:86:cc:
         81:65:4d:d2:91:12:b2:55:76:3a:ed:b6:51:16:87:3c:7f:37:
         0e:f0:f8:51:68:52:90:87:56:54:bd:5b:61:b9:99:ba:97:7c:
         18:18:93:37:dd:23:a8:e7:8d:08:36:18:f0:8c:71:2a:b1:05:
         fa:26:40:76:9a:c3:07:f5:1d:26:c1:ec:60:36:d9:76:23:aa:
         b7:4f:3a:1f:37:26:ff:c1:7e:c0:7a:3d:eb:50:4c:9c:35:95:
         33:9f:b7:b4:ab:82:66:64:ab:54:8d:03:47:0a:d0:01:f6:19:
         72:7b:0b:f0:f8:2d:ef:21:ce:63:58:93:30:79:ad:b5:9f:e6:
         52:5e:b6:7a:5a:0f:db:42:6b:6d:69:f7:47:aa:d3:46:1a:3e:
         3d:72:86:72:cf:b6:f3:de:d1:70:0b:94:a6:26:38:48:c1:e0:
         b9:16:35:3f:9b:d0:0a:69:a3:68:d8:51:9c:ae:7c:47:fd:ab:
         5a:02:11:50:a9:ac:e9:a4:35:02:67:6e:1d:5d:3b:b9:b8:b3:
         0b:16:cf:63:ce:b1:93:6e:9a:7a:42:1d:1f:78:18:56:89:6f:
         d5:4e:b6:56:b4:bb:ed:09:07:2c:b6:c2:3f:06:dd:8c:78:02:
         04:08:7d:68:de:7c:55:32:0b:98:4b:c2:11:3d:bf:d1:9f:f5:
         c7:20:39:bc:8f:aa:be:35:79:ec:d2:3c:e6:6f:42:da:ba:40:
         83:95:36:aa:95:f2:94:ed:ec:03:e6:2b:0b:3d:41:5b:b4:20:
         20:33:45:e7:e6:d7:12:ff:16:79:e3:39:b6:17:9d:63:9d:26:
         e0:f7:e5:5f:b1:13:a5:a9:20:ac:61:98:a6:9c:10:20:c3:45:
         b5:b0:31:18:12:cb:50:32:2d:f4:3e:94:92:0f:b9:16:4d:72:
         04:7e:97:a4:93:75:28:be:fc:3f:87:56:97:38:3f:6f:27:f2:
         f0:ac:c3:99:eb:ce:29:a4:d6:31:f5:b4:e7:40:92:e2:21:cd:
         8a:04:4b:3a:9b:33:59:ef:d4:0b:0c:76:29:7c:94:7b:5d:43:
         32:48:db:1c:b7:f6:a5:b6
-----BEGIN CERTIFICATE-----
MIIGEzCCA/ugAwIBAgIBWjANBgkqhkiG9w0BAQsFADCBkzELMAkGA1UEBhMCRlIx
DzANBgNVBAgMBkZyYW5jZTERMA8GA1UECgwIU3lzdGVyZWwxNjA0BgNVBAMMLVMy
T1BDIENlbnR1cnkgQ2VydGlmaWNhdGUgQXV0aG9yaXR5IGZvciBUZXN0czEoMCYG
CSqGSIb3DQEJARYZczJvcGMtc3VwcG9ydEBzeXN0ZXJlbC5mcjAgFw0xOTExMTkx
NjA2MzBaGA8yMTE5MTAyNjE2MDYzMFowZjELMAkGA1UEBhMCRlIxDzANBgNVBAgM
BkZyYW5jZTERMA8GA1UECgwIU3lzdGVyZWwxMzAxBgNVBAMMKlMyT1BDIENlbnR1
cnkgQ2VydGlmaWNhdGUgZm9yIFRlc3QgQ2xpZW50czCCAiIwDQYJKoZIhvcNAQEB
BQADggIPADCCAgoCggIBANVbahZ8y0depIKNSIBj6/tqnh3kMmKF7A+u6bNImZcR
ASVBHx1j7fvNVsd2CXL7bStHOaKojrfJm7Fg0iGDoJcYDwG/dkTMQ4hWR9Wjvk4S
OwaImgUoC5J2wxSGectyvX8GWlBxLkHUtmWBbbkd/Guj3Nyi3ehcWbpE7yxMbzqs
t4mLJGAFpV/PNtK8BHfCc04DvYCU91EmxW2TwnvtFzRR+8uzEdL+/O35AQnQw8nF
WLPbstllYEoAcT8QtvNqTd/exWvIUPYojxhIX+2wytqS5Z0SWiRUUq8xYMYLhmtw
f5kjdTV9ek1WC+zgg9kt4HsLpcv09JC13zgq8fhzoyDuZlXYF6CxScskVwqsDdqX
ylPiyvtMatkipF85ElyBge5CPe1Pe6inevuuFkn9jjfi9SnSpZ8I5GlhBSz3nIDr
FVLBbwAXE3KK2tYL9qLv75kteLiZDZT6V44IpPr9EkRLrqEjTdoLs7CHkpGbTl1/
G13DO0vpERy6o1kqle7Yas9QLTVFcmh5gcmqCSuxDlQhduT/SjCGJqmhz+0PVxS9
S5vefYxBS+/SErb1bm4Spjj0AYvxjjSItiEmPqbNTJgEUfsMIEByJU7stQU0+eie
cO+pDEpv/rOK9Csit0sOIZtXpzMtNU4DrUvndut4CpNTnMao+hoZhPTKkcEZ0c35
AgMBAAGjgZswgZgwHQYDVR0OBBYEFBh+heA1yMglrVyoZ2hqszlQPN0ZMB8GA1Ud
IwQYMBaAFHpGy9IvMKT/ZykTOT+cAr8D0HKCMAsGA1UdDwQEAwIE8DATBgNVHSUE
DDAKBggrBgEFBQcDAjAJBgNVHRMEAjAAMCkGA1UdEQQiMCCGE3VybjpTMk9QQzps
b2NhbGhvc3SCCWxvY2FsaG9zdDANBgkqhkiG9w0BAQsFAAOCAgEAnEpS4WTIFfbh
afLMxACaCM+zdL0YZ1YW/j/UJieg094jXFYVPXGuYub4B6s/QJNQ5kK8qjlDNaWY
Bp48iNlZJXKcDey1bF7VdZyNQC2TeCQjgIzbwapbHhsotpDpnNYBosU8VxKp7FjQ
w4bMgWVN0pESslV2Ou22URaHPH83DvD4UWhSkIdWVL1bYbmZupd8GBiTN90jqOeN
CDYY8IxxKrEF+iZAdprDB/UdJsHsYDbZdiOqt086Hzcm/8F+wHo961BMnDWVM5+3
tKuCZmSrVI0DRwrQAfYZcnsL8Pgt7yHOY1iTMHmttZ/mUl62eloP20JrbWn3R6rT
Rho+PXKGcs+2897RcAuUpiY4SMHguRY1P5vQCmmjaNhRnK58R/2rWgIRUKms6aQ1
AmduHV07ubizCxbPY86xk26aekIdH3gYVolv1U62VrS77QkHLLbCPwbdjHgCBAh9
aN58VTILmEvCET2/0Z/1xyA5vI+qvjV57NI85m9C2rpAg5U2qpXylO3sA+YrCz1B
W7QgIDNF5+bXEv8WeeM5thedY50m4PflX7ETpakgrGGYppwQIMNFtbAxGBLLUDIt
9D6Ukg+5Fk1yBH6XpJN1KL78P4dWlzg/byfy8KzDmevOKaTWMfW050CS4iHNigRL
OpszWe/UCwx2KXyUe11DMkjbHLf2pbY=
-----END CERTIFICATE-----
