Certificate:
    Data:
        Version: 3 (0x2)
        Serial Number: 7 (0x7)
        Signature Algorithm: sha256WithRSAEncryption
        Issuer: C=FR, ST=France, O=Systerel, CN=S2OPC Century Certificate Authority for Tests/emailAddress=s2opc-support@systerel.fr
        Validity
            Not Before: Jan 22 15:02:59 2025 GMT
            Not After : Jan 20 15:02:59 2035 GMT
        Subject: C=FR, ST=France, L=Aix-en-Provence, O=Systerel, CN=S2OPC Demo Certificate for Client Tests
        Subject Public Key Info:
            Public Key Algorithm: rsaEncryption
                Public-Key: (4096 bit)
                Modulus:
                    00:d5:5b:6a:16:7c:cb:47:5e:a4:82:8d:48:80:63:
                    eb:fb:6a:9e:1d:e4:32:62:85:ec:0f:ae:e9:b3:48:
                    99:97:11:01:25:41:1f:1d:63:ed:fb:cd:56:c7:76:
                    09:72:fb:6d:2b:47:39:a2:a8:8e:b7:c9:9b:b1:60:
                    d2:21:83:a0:97:18:0f:01:bf:76:44:cc:43:88:56:
                    47:d5:a3:be:4e:12:3b:06:88:9a:05:28:0b:92:76:
                    c3:14:86:79:cb:72:bd:7f:06:5a:50:71:2e:41:d4:
                    b6:65:81:6d:b9:1d:fc:6b:a3:dc:dc:a2:dd:e8:5c:
                    59:ba:44:ef:2c:4c:6f:3a:ac:b7:89:8b:24:60:05:
                    a5:5f:cf:36:d2:bc:04:77:c2:73:4e:03:bd:80:94:
                    f7:51:26:c5:6d:93:c2:7b:ed:17:34:51:fb:cb:b3:
                    11:d2:fe:fc:ed:f9:01:09:d0:c3:c9:c5:58:b3:db:
                    b2:d9:65:60:4a:00:71:3f:10:b6:f3:6a:4d:df:de:
                    c5:6b:c8:50:f6:28:8f:18:48:5f:ed:b0:ca:da:92:
                    e5:9d:12:5a:24:54:52:af:31:60:c6:0b:86:6b:70:
                    7f:99:23:75:35:7d:7a:4d:56:0b:ec:e0:83:d9:2d:
                    e0:7b:0b:a5:cb:f4:f4:90:b5:df:38:2a:f1:f8:73:
                    a3:20:ee:66:55:d8:17:a0:b1:49:cb:24:57:0a:ac:
                    0d:da:97:ca:53:e2:ca:fb:4c:6a:d9:22:a4:5f:39:
                    12:5c:81:81:ee:42:3d:ed:4f:7b:a8:a7:7a:fb:ae:
                    16:49:fd:8e:37:e2:f5:29:d2:a5:9f:08:e4:69:61:
                    05:2c:f7:9c:80:eb:15:52:c1:6f:00:17:13:72:8a:
                    da:d6:0b:f6:a2:ef:ef:99:2d:78:b8:99:0d:94:fa:
                    57:8e:08:a4:fa:fd:12:44:4b:ae:a1:23:4d:da:0b:
                    b3:b0:87:92:91:9b:4e:5d:7f:1b:5d:c3:3b:4b:e9:
                    11:1c:ba:a3:59:2a:95:ee:d8:6a:cf:50:2d:35:45:
                    72:68:79:81:c9:aa:09:2b:b1:0e:54:21:76:e4:ff:
                    4a:30:86:26:a9:a1:cf:ed:0f:57:14:bd:4b:9b:de:
                    7d:8c:41:4b:ef:d2:12:b6:f5:6e:6e:12:a6:38:f4:
                    01:8b:f1:8e:34:88:b6:21:26:3e:a6:cd:4c:98:04:
                    51:fb:0c:20:40:72:25:4e:ec:b5:05:34:f9:e8:9e:
                    70:ef:a9:0c:4a:6f:fe:b3:8a:f4:2b:22:b7:4b:0e:
                    21:9b:57:a7:33:2d:35:4e:03:ad:4b:e7:76:eb:78:
                    0a:93:53:9c:c6:a8:fa:1a:19:84:f4:ca:91:c1:19:
                    d1:cd:f9
                Exponent: 65537 (0x10001)
        X509v3 extensions:
            X509v3 Subject Key Identifier: 
                18:7E:85:E0:35:C8:C8:25:AD:5C:A8:67:68:6A:B3:39:50:3C:DD:19
            X509v3 Authority Key Identifier: 
                7A:46:CB:D2:2F:30:A4:FF:67:29:13:39:3F:9C:02:BF:03:D0:72:82
            X509v3 Key Usage: 
                Digital Signature, Non Repudiation, Key Encipherment, Data Encipherment
            X509v3 Extended Key Usage: 
                TLS Web Client Authentication
            X509v3 Basic Constraints: 
                CA:FALSE
            X509v3 Subject Alternative Name: 
                URI:urn:S2OPC:localhost, DNS:localhost
    Signature Algorithm: sha256WithRSAEncryption
    Signature Value:
        15:51:95:59:50:9a:8d:8d:16:c3:bb:90:bf:90:33:d5:18:ae:
        ea:23:b8:aa:15:ec:32:42:e0:a3:59:76:05:b5:82:fd:59:e3:
        7a:de:a8:9d:df:73:ed:41:a4:26:51:53:0f:ca:0e:6d:ce:1c:
        69:7c:2c:65:0a:fb:95:60:07:83:74:76:f9:fe:5f:6f:3c:f5:
        ca:ae:0c:de:57:a3:f7:c7:47:59:f1:3d:2b:7b:fe:5e:48:ed:
        f6:55:84:e6:db:5a:77:5a:17:dc:ad:bd:82:65:77:3d:d6:97:
        51:9d:58:f6:ee:19:0b:ba:9c:b4:8b:31:75:8a:4b:24:13:fc:
        fa:ea:17:01:f6:d5:e0:fb:9e:11:b4:cd:ab:76:c5:e0:33:08:
        0f:4b:6a:fd:bf:cb:e7:51:b6:99:42:08:ef:7f:0e:b0:79:97:
        58:0b:a4:ac:fd:fc:19:01:f9:11:16:a5:fb:69:66:12:32:50:
        f7:ae:fb:ad:d6:3b:56:76:fa:5f:18:e6:53:8c:01:46:6e:77:
        75:23:7f:6c:82:20:cb:64:28:bc:92:eb:cf:e2:1a:1b:d8:f5:
        24:3d:8b:d0:7e:e1:86:69:dc:4c:b1:50:78:c1:4a:ca:3e:8e:
        d5:49:fd:ef:e9:e2:df:d9:90:35:79:3d:6e:fc:a3:f0:72:41:
        a9:5b:68:81:6c:7f:a4:79:04:4f:fb:b1:2c:53:98:6f:49:2a:
        73:da:75:09:64:ab:56:d0:0e:21:c1:17:a2:47:1f:77:df:b4:
        f0:d5:a4:bf:e0:41:9b:b0:f4:d7:16:86:b2:bf:c3:e5:ba:09:
        4a:0d:75:b3:06:94:9a:4d:bc:0a:57:01:f3:fa:89:2a:65:41:
        48:b8:1a:a0:35:13:31:97:d3:b6:d2:47:69:3b:0d:d6:61:5a:
        71:4e:59:35:6a:6e:6c:d9:42:7a:1b:64:73:be:61:80:01:86:
        93:db:02:a8:15:ff:3b:90:21:88:7d:30:77:50:5a:aa:5e:07:
        88:a9:9e:7d:83:22:b1:53:b1:51:d3:f9:6f:7e:5a:c5:f2:8f:
        cd:72:99:46:75:f6:4a:41:38:b7:8b:84:f2:b8:16:b2:0d:68:
        4a:ed:95:25:27:70:89:e9:8e:71:cd:c6:f8:5c:ee:0e:e6:44:
        90:ca:94:c5:41:10:60:9a:29:82:dd:a1:63:e5:e9:80:6a:85:
        9d:d6:aa:d0:40:f5:09:eb:ae:18:d3:4a:e3:c0:f8:e0:f3:70:
        ea:5a:f1:af:a6:65:94:9b:c8:39:c8:e6:c7:89:15:20:3a:f6:
        ae:08:db:e6:27:69:d5:83:f3:01:31:b6:b5:e2:0f:e1:3f:e9:
        e8:b3:e3:19:ef:52:fb:cd
-----BEGIN CERTIFICATE-----
MIIGKDCCBBCgAwIBAgIBBzANBgkqhkiG9w0BAQsFADCBkzELMAkGA1UEBhMCRlIx
DzANBgNVBAgMBkZyYW5jZTERMA8GA1UECgwIU3lzdGVyZWwxNjA0BgNVBAMMLVMy
T1BDIENlbnR1cnkgQ2VydGlmaWNhdGUgQXV0aG9yaXR5IGZvciBUZXN0czEoMCYG
CSqGSIb3DQEJARYZczJvcGMtc3VwcG9ydEBzeXN0ZXJlbC5mcjAeFw0yNTAxMjIx
NTAyNTlaFw0zNTAxMjAxNTAyNTlaMH0xCzAJBgNVBAYTAkZSMQ8wDQYDVQQIDAZG
cmFuY2UxGDAWBgNVBAcMD0FpeC1lbi1Qcm92ZW5jZTERMA8GA1UECgwIU3lzdGVy
ZWwxMDAuBgNVBAMMJ1MyT1BDIERlbW8gQ2VydGlmaWNhdGUgZm9yIENsaWVudCBU
ZXN0czCCAiIwDQYJKoZIhvcNAQEBBQADggIPADCCAgoCggIBANVbahZ8y0depIKN
SIBj6/tqnh3kMmKF7A+u6bNImZcRASVBHx1j7fvNVsd2CXL7bStHOaKojrfJm7Fg
0iGDoJcYDwG/dkTMQ4hWR9Wjvk4SOwaImgUoC5J2wxSGectyvX8GWlBxLkHUtmWB
bbkd/Guj3Nyi3ehcWbpE7yxMbzqst4mLJGAFpV/PNtK8BHfCc04DvYCU91EmxW2T
wnvtFzRR+8uzEdL+/O35AQnQw8nFWLPbstllYEoAcT8QtvNqTd/exWvIUPYojxhI
X+2wytqS5Z0SWiRUUq8xYMYLhmtwf5kjdTV9ek1WC+zgg9kt4HsLpcv09JC13zgq
8fhzoyDuZlXYF6CxScskVwqsDdqXylPiyvtMatkipF85ElyBge5CPe1Pe6inevuu
Fkn9jjfi9SnSpZ8I5GlhBSz3nIDrFVLBbwAXE3KK2tYL9qLv75kteLiZDZT6V44I
pPr9EkRLrqEjTdoLs7CHkpGbTl1/G13DO0vpERy6o1kqle7Yas9QLTVFcmh5gcmq
CSuxDlQhduT/SjCGJqmhz+0PVxS9S5vefYxBS+/SErb1bm4Spjj0AYvxjjSItiEm
PqbNTJgEUfsMIEByJU7stQU0+eiecO+pDEpv/rOK9Csit0sOIZtXpzMtNU4DrUvn
dut4CpNTnMao+hoZhPTKkcEZ0c35AgMBAAGjgZswgZgwHQYDVR0OBBYEFBh+heA1
yMglrVyoZ2hqszlQPN0ZMB8GA1UdIwQYMBaAFHpGy9IvMKT/ZykTOT+cAr8D0HKC
MAsGA1UdDwQEAwIE8DATBgNVHSUEDDAKBggrBgEFBQcDAjAJBgNVHRMEAjAAMCkG
A1UdEQQiMCCGE3VybjpTMk9QQzpsb2NhbGhvc3SCCWxvY2FsaG9zdDANBgkqhkiG
9w0BAQsFAAOCAgEAFVGVWVCajY0Ww7uQv5Az1Riu6iO4qhXsMkLgo1l2BbWC/Vnj
et6ond9z7UGkJlFTD8oObc4caXwsZQr7lWAHg3R2+f5fbzz1yq4M3lej98dHWfE9
K3v+Xkjt9lWE5ttad1oX3K29gmV3PdaXUZ1Y9u4ZC7qctIsxdYpLJBP8+uoXAfbV
4PueEbTNq3bF4DMID0tq/b/L51G2mUII738OsHmXWAukrP38GQH5ERal+2lmEjJQ
9677rdY7Vnb6XxjmU4wBRm53dSN/bIIgy2QovJLrz+IaG9j1JD2L0H7hhmncTLFQ
eMFKyj6O1Un97+ni39mQNXk9bvyj8HJBqVtogWx/pHkET/uxLFOYb0kqc9p1CWSr
VtAOIcEXokcfd9+08NWkv+BBm7D01xaGsr/D5boJSg11swaUmk28ClcB8/qJKmVB
SLgaoDUTMZfTttJHaTsN1mFacU5ZNWpubNlCehtkc75hgAGGk9sCqBX/O5AhiH0w
d1Baql4HiKmefYMisVOxUdP5b35axfKPzXKZRnX2SkE4t4uE8rgWsg1oSu2VJSdw
iemOcc3G+FzuDuZEkMqUxUEQYJopgt2hY+XpgGqFndaq0ED1CeuuGNNK48D44PNw
6lrxr6ZllJvIOcjmx4kVIDr2rgjb5idp1YPzATG2teIP4T/p6LPjGe9S+80=
-----END CERTIFICATE-----
