Certificate:
    Data:
        Version: 3 (0x2)
        Serial Number: 0 (0x0)
        Signature Algorithm: sha256WithRSAEncryption
        Issuer: C=FR, ST=France, O=Systerel, CN=S2OPC Century Certificate Authority for Tests/emailAddress=s2opc-support@systerel.fr
        Validity
            Not Before: Feb  2 16:56:54 2023 GMT
            Not After : Feb  1 16:56:54 2025 GMT
        Subject: C=FR, ST=France, L=Aix-en-Provence, O=Systerel, CN=S2OPC Demo Certificate for Client Tests
        Subject Public Key Info:
            Public Key Algorithm: rsaEncryption
                RSA Public-Key: (2048 bit)
                Modulus:
                    00:bb:6d:eb:26:19:2c:e7:56:fe:29:7a:ef:8e:86:
                    69:53:9d:56:80:8b:01:3f:55:0f:61:16:3f:4f:87:
                    9f:f1:8f:8e:da:83:81:39:02:af:d1:dd:5f:cf:a3:
                    46:eb:a7:ab:ce:1d:76:00:28:e2:06:5d:31:81:61:
                    9c:3d:1e:2b:61:e3:92:55:73:c3:61:42:6f:b2:d1:
                    ec:ef:de:b2:5b:60:58:5c:08:55:bb:a8:bc:b0:e2:
                    99:61:bf:21:86:41:69:d6:b9:e7:76:ce:5f:fa:94:
                    78:79:f0:08:ce:ef:5a:22:52:bd:6e:1e:da:4b:f9:
                    ed:d3:d2:b8:e7:34:bb:bc:0d:81:bf:2c:3b:2d:02:
                    90:2d:31:2a:27:8f:b5:8c:5b:52:1a:cd:9e:f6:6f:
                    60:57:47:61:b5:84:1a:8b:0c:e1:05:ba:d0:81:8f:
                    11:22:ca:97:16:15:e9:f3:f0:02:a9:8c:67:3d:a0:
                    e1:83:53:ca:c3:f2:05:70:6c:b9:70:fc:97:5a:5a:
                    38:1f:ec:d4:8c:6d:d9:fb:76:d2:67:a1:39:90:22:
                    00:d6:94:49:e7:ec:9f:24:1d:69:fb:2f:8b:fe:cc:
                    c5:0b:7d:2d:67:06:5b:6f:39:07:bb:ad:60:c5:e4:
                    fc:17:0c:99:b0:46:c7:4a:4e:7d:39:b2:87:4a:c4:
                    dd:e5
                Exponent: 65537 (0x10001)
        X509v3 extensions:
            X509v3 Subject Key Identifier: 
                64:E9:66:9E:14:04:F1:A7:24:30:0B:7A:33:A6:19:C4:C0:8E:D0:79
            X509v3 Authority Key Identifier: 
                keyid:7A:46:CB:D2:2F:30:A4:FF:67:29:13:39:3F:9C:02:BF:03:D0:72:82

            X509v3 Key Usage: 
                Digital Signature, Non Repudiation, Key Encipherment, Data Encipherment
            X509v3 Extended Key Usage: 
                TLS Web Client Authentication
            X509v3 Basic Constraints: 
                CA:FALSE
            X509v3 Subject Alternative Name: 
                URI:urn:S2OPC:localhost, DNS:localhost
    Signature Algorithm: sha256WithRSAEncryption
         b9:d4:19:0a:79:7a:d4:72:9d:c1:2d:f9:b7:89:93:08:9d:2c:
         df:df:ad:9a:ba:8c:07:86:cf:3a:ee:5f:30:12:30:73:2c:f6:
         bb:6d:bd:86:a4:25:f7:87:99:d3:30:92:e9:da:d5:1f:83:3d:
         91:75:03:66:81:7b:58:14:e1:bb:fb:ea:cf:98:74:96:af:07:
         e9:ba:dc:b4:4b:e9:e9:e8:db:48:d2:2e:be:ba:bb:7f:21:02:
         f9:f6:5d:5a:aa:43:e0:7c:96:5f:82:90:1a:6e:7a:8f:fb:1f:
         59:f7:f2:84:10:65:8a:e4:96:22:63:f9:75:e2:83:a2:a8:59:
         14:58:6b:ef:df:40:eb:d9:0c:c8:3b:92:f7:e6:37:63:1a:b7:
         88:96:b6:89:f2:75:ac:6d:20:7a:67:e5:fe:e4:29:7e:e1:03:
         4f:22:7f:b2:13:62:a6:cc:65:0c:ac:eb:f0:d1:79:02:d6:90:
         1e:51:76:b1:65:66:0c:8d:47:cc:e6:ab:8b:46:6d:cb:a5:96:
         81:c8:77:bd:c9:bc:f8:8d:db:63:6f:48:87:73:d2:51:cf:ed:
         a6:7e:ad:4c:f6:e2:2a:28:7e:7c:85:a5:fd:c0:38:29:f4:ca:
         55:b1:a9:1d:5a:18:1a:78:f5:4e:d6:14:5a:6a:f3:f9:12:8b:
         0a:be:c1:7c:ad:ac:e6:8a:80:43:de:41:40:24:06:32:57:20:
         ad:3d:07:9b:07:90:d6:a5:c2:a6:ea:48:d2:f4:a5:22:46:ed:
         ce:c2:3c:d4:d0:ce:79:c2:b1:b0:ac:bc:e1:e2:d4:5b:cb:93:
         5a:31:48:fd:10:cc:bf:06:2c:92:aa:f5:90:52:64:50:cf:77:
         16:eb:fe:3d:1c:fc:2e:69:fb:f4:a3:00:68:9f:45:1d:aa:6a:
         54:b8:ce:44:1e:24:72:79:d2:94:fd:c9:ac:10:45:4d:8a:c5:
         3d:b6:50:e5:bf:27:a5:aa:4a:95:d3:6c:47:a5:74:4b:c6:53:
         14:31:1f:58:5d:f7:fa:7d:84:f7:2d:d6:46:3e:61:09:c6:3e:
         5d:18:dc:a6:3c:23:08:32:20:c5:5e:56:b4:7a:b6:61:46:a9:
         45:76:3a:33:b1:d7:f6:83:c4:aa:1b:3b:64:18:2c:e5:90:ff:
         32:2e:3b:d4:e4:74:d1:dd:cc:b7:34:0f:74:fc:0e:f1:d6:00:
         84:d0:76:bf:a6:1b:cb:9e:01:36:89:aa:c4:b9:05:67:a5:55:
         a4:a6:9f:a0:b8:6d:e4:a1:cf:15:93:6c:36:c7:54:9d:ac:aa:
         53:c0:63:a4:94:18:84:d3:b0:6d:40:85:de:07:f4:77:c0:c8:
         f5:78:17:93:f5:e9:3c:43
-----BEGIN CERTIFICATE-----
MIIFKDCCAxCgAwIBAgIBADANBgkqhkiG9w0BAQsFADCBkzELMAkGA1UEBhMCRlIx
DzANBgNVBAgMBkZyYW5jZTERMA8GA1UECgwIU3lzdGVyZWwxNjA0BgNVBAMMLVMy
T1BDIENlbnR1cnkgQ2VydGlmaWNhdGUgQXV0aG9yaXR5IGZvciBUZXN0czEoMCYG
CSqGSIb3DQEJARYZczJvcGMtc3VwcG9ydEBzeXN0ZXJlbC5mcjAeFw0yMzAyMDIx
NjU2NTRaFw0yNTAyMDExNjU2NTRaMH0xCzAJBgNVBAYTAkZSMQ8wDQYDVQQIDAZG
cmFuY2UxGDAWBgNVBAcMD0FpeC1lbi1Qcm92ZW5jZTERMA8GA1UECgwIU3lzdGVy
ZWwxMDAuBgNVBAMMJ1MyT1BDIERlbW8gQ2VydGlmaWNhdGUgZm9yIENsaWVudCBU
ZXN0czCCASIwDQYJKoZIhvcNAQEBBQADggEPADCCAQoCggEBALtt6yYZLOdW/il6
746GaVOdVoCLAT9VD2EWP0+Hn/GPjtqDgTkCr9HdX8+jRuunq84ddgAo4gZdMYFh
nD0eK2HjklVzw2FCb7LR7O/esltgWFwIVbuovLDimWG/IYZBada553bOX/qUeHnw
CM7vWiJSvW4e2kv57dPSuOc0u7wNgb8sOy0CkC0xKiePtYxbUhrNnvZvYFdHYbWE
GosM4QW60IGPESLKlxYV6fPwAqmMZz2g4YNTysPyBXBsuXD8l1paOB/s1Ixt2ft2
0mehOZAiANaUSefsnyQdafsvi/7MxQt9LWcGW285B7utYMXk/BcMmbBGx0pOfTmy
h0rE3eUCAwEAAaOBmzCBmDAdBgNVHQ4EFgQUZOlmnhQE8ackMAt6M6YZxMCO0Hkw
HwYDVR0jBBgwFoAUekbL0i8wpP9nKRM5P5wCvwPQcoIwCwYDVR0PBAQDAgTwMBMG
A1UdJQQMMAoGCCsGAQUFBwMCMAkGA1UdEwQCMAAwKQYDVR0RBCIwIIYTdXJuOlMy
T1BDOmxvY2FsaG9zdIIJbG9jYWxob3N0MA0GCSqGSIb3DQEBCwUAA4ICAQC51BkK
eXrUcp3BLfm3iZMInSzf362auowHhs867l8wEjBzLPa7bb2GpCX3h5nTMJLp2tUf
gz2RdQNmgXtYFOG7++rPmHSWrwfputy0S+np6NtI0i6+urt/IQL59l1aqkPgfJZf
gpAabnqP+x9Z9/KEEGWK5JYiY/l14oOiqFkUWGvv30Dr2QzIO5L35jdjGreIlraJ
8nWsbSB6Z+X+5Cl+4QNPIn+yE2KmzGUMrOvw0XkC1pAeUXaxZWYMjUfM5quLRm3L
pZaByHe9ybz4jdtjb0iHc9JRz+2mfq1M9uIqKH58haX9wDgp9MpVsakdWhgaePVO
1hRaavP5EosKvsF8razmioBD3kFAJAYyVyCtPQebB5DWpcKm6kjS9KUiRu3OwjzU
0M55wrGwrLzh4tRby5NaMUj9EMy/BiySqvWQUmRQz3cW6/49HPwuafv0owBon0Ud
qmpUuM5EHiRyedKU/cmsEEVNisU9tlDlvyelqkqV02xHpXRLxlMUMR9YXff6fYT3
LdZGPmEJxj5dGNymPCMIMiDFXla0erZhRqlFdjozsdf2g8SqGztkGCzlkP8yLjvU
5HTR3cy3NA90/A7x1gCE0Ha/phvLngE2iarEuQVnpVWkpp+guG3koc8Vk2w2x1Sd
rKpTwGOklBiE07BtQIXeB/R3wMj1eBeT9ek8Qw==
-----END CERTIFICATE-----
