Certificate:
    Data:
        Version: 3 (0x2)
        Serial Number: 1 (0x1)
        Signature Algorithm: sha256WithRSAEncryption
        Issuer: C=FR, ST=France, O=Systerel, CN=S2OPC Demo Certificate Authority for Tests/emailAddress=s2opc-support@systerel.fr, L=Aix-en-Provence
        Validity
            Not Before: Feb  2 10:14:09 2023 GMT
            Not After : Feb  1 10:14:09 2025 GMT
        Subject: C=FR, ST=France, L=Aix-en-Provence, O=Systerel, CN=S2OPC Demo Certificate for Client Tests
        Subject Public Key Info:
            Public Key Algorithm: rsaEncryption
                RSA Public-Key: (4096 bit)
                Modulus:
                    00:d5:5b:6a:16:7c:cb:47:5e:a4:82:8d:48:80:63:
                    eb:fb:6a:9e:1d:e4:32:62:85:ec:0f:ae:e9:b3:48:
                    99:97:11:01:25:41:1f:1d:63:ed:fb:cd:56:c7:76:
                    09:72:fb:6d:2b:47:39:a2:a8:8e:b7:c9:9b:b1:60:
                    d2:21:83:a0:97:18:0f:01:bf:76:44:cc:43:88:56:
                    47:d5:a3:be:4e:12:3b:06:88:9a:05:28:0b:92:76:
                    c3:14:86:79:cb:72:bd:7f:06:5a:50:71:2e:41:d4:
                    b6:65:81:6d:b9:1d:fc:6b:a3:dc:dc:a2:dd:e8:5c:
                    59:ba:44:ef:2c:4c:6f:3a:ac:b7:89:8b:24:60:05:
                    a5:5f:cf:36:d2:bc:04:77:c2:73:4e:03:bd:80:94:
                    f7:51:26:c5:6d:93:c2:7b:ed:17:34:51:fb:cb:b3:
                    11:d2:fe:fc:ed:f9:01:09:d0:c3:c9:c5:58:b3:db:
                    b2:d9:65:60:4a:00:71:3f:10:b6:f3:6a:4d:df:de:
                    c5:6b:c8:50:f6:28:8f:18:48:5f:ed:b0:ca:da:92:
                    e5:9d:12:5a:24:54:52:af:31:60:c6:0b:86:6b:70:
                    7f:99:23:75:35:7d:7a:4d:56:0b:ec:e0:83:d9:2d:
                    e0:7b:0b:a5:cb:f4:f4:90:b5:df:38:2a:f1:f8:73:
                    a3:20:ee:66:55:d8:17:a0:b1:49:cb:24:57:0a:ac:
                    0d:da:97:ca:53:e2:ca:fb:4c:6a:d9:22:a4:5f:39:
                    12:5c:81:81:ee:42:3d:ed:4f:7b:a8:a7:7a:fb:ae:
                    16:49:fd:8e:37:e2:f5:29:d2:a5:9f:08:e4:69:61:
                    05:2c:f7:9c:80:eb:15:52:c1:6f:00:17:13:72:8a:
                    da:d6:0b:f6:a2:ef:ef:99:2d:78:b8:99:0d:94:fa:
                    57:8e:08:a4:fa:fd:12:44:4b:ae:a1:23:4d:da:0b:
                    b3:b0:87:92:91:9b:4e:5d:7f:1b:5d:c3:3b:4b:e9:
                    11:1c:ba:a3:59:2a:95:ee:d8:6a:cf:50:2d:35:45:
                    72:68:79:81:c9:aa:09:2b:b1:0e:54:21:76:e4:ff:
                    4a:30:86:26:a9:a1:cf:ed:0f:57:14:bd:4b:9b:de:
                    7d:8c:41:4b:ef:d2:12:b6:f5:6e:6e:12:a6:38:f4:
                    01:8b:f1:8e:34:88:b6:21:26:3e:a6:cd:4c:98:04:
                    51:fb:0c:20:40:72:25:4e:ec:b5:05:34:f9:e8:9e:
                    70:ef:a9:0c:4a:6f:fe:b3:8a:f4:2b:22:b7:4b:0e:
                    21:9b:57:a7:33:2d:35:4e:03:ad:4b:e7:76:eb:78:
                    0a:93:53:9c:c6:a8:fa:1a:19:84:f4:ca:91:c1:19:
                    d1:cd:f9
                Exponent: 65537 (0x10001)
        X509v3 extensions:
            X509v3 Subject Key Identifier: 
                18:7E:85:E0:35:C8:C8:25:AD:5C:A8:67:68:6A:B3:39:50:3C:DD:19
            X509v3 Authority Key Identifier: 
                keyid:7A:46:CB:D2:2F:30:A4:FF:67:29:13:39:3F:9C:02:BF:03:D0:72:82

            X509v3 Key Usage: 
                Digital Signature, Non Repudiation, Key Encipherment, Data Encipherment
            X509v3 Extended Key Usage: 
                TLS Web Client Authentication
            X509v3 Basic Constraints: 
                CA:FALSE
            X509v3 Subject Alternative Name: 
                URI:urn:S2OPC:localhost, DNS:localhost
    Signature Algorithm: sha256WithRSAEncryption
         95:87:38:0f:5a:55:e3:77:88:cd:61:af:67:d5:4c:2e:53:fb:
         71:f6:1c:21:72:14:0a:4f:fc:97:20:dd:0c:4e:df:42:e3:8a:
         ca:e8:73:b8:48:6b:65:ba:5c:d0:cd:da:b8:c7:09:91:ad:7a:
         d4:de:f3:51:f7:c7:cf:da:dc:f4:52:eb:a8:96:83:f7:ed:c4:
         58:fa:12:f6:49:47:1a:ae:f1:65:5d:d9:bd:1d:0a:bd:7a:00:
         45:ee:bd:d6:e1:e6:dc:85:0b:15:23:17:02:02:be:60:00:57:
         e3:7f:a7:ad:c3:ec:84:96:db:5a:4e:ba:25:26:47:c7:57:c9:
         e5:3a:44:7f:b8:f4:fa:ee:ed:0e:98:ee:aa:45:d0:c9:19:3c:
         7f:72:7f:13:6b:be:d9:5a:45:fc:09:e7:d3:c7:9d:a2:37:58:
         c8:7b:cf:dd:58:b9:1b:f0:04:07:78:9c:6a:02:68:02:28:09:
         36:16:68:c0:f2:29:82:56:1f:66:09:b8:08:1b:f8:ca:63:a7:
         7c:24:85:65:dc:a1:18:7f:5e:8d:13:13:1d:e0:89:f6:31:86:
         72:3e:6f:af:06:49:ec:49:6a:7b:53:4e:33:ed:a3:fa:9d:5d:
         0c:0d:09:3d:99:d2:37:ae:33:08:54:b0:04:d3:9d:e0:55:d6:
         72:c5:26:3a:0d:47:f2:bf:bc:a2:6d:0c:12:5d:94:af:23:bb:
         99:97:f7:b5:11:77:21:5b:46:8e:95:2c:42:1d:cf:f9:38:45:
         fd:e3:c1:7b:a2:7f:f7:3b:30:bb:25:85:ed:b0:44:29:87:dc:
         3b:f1:b4:3f:48:a8:dc:2f:bd:91:6d:b7:d8:3a:97:2f:2a:c5:
         90:0a:78:69:53:d0:8c:d3:4f:96:06:4d:96:16:b4:62:ef:ab:
         8d:8e:d8:15:97:3e:4a:92:db:ff:d7:4d:eb:95:dc:80:00:72:
         4f:36:a6:96:57:91:fe:ca:16:6f:28:6f:1e:4e:d0:24:90:af:
         dd:2b:e6:86:20:7b:e4:d3:22:d9:b7:62:7f:9f:7e:74:36:cc:
         1f:74:a7:e4:79:ef:04:07:2f:e8:4b:a4:a7:30:00:d9:69:ab:
         23:14:78:4a:3c:80:00:a9:ad:66:f7:ef:98:ab:74:f2:b7:ac:
         d6:02:9a:4f:42:a5:f8:dc:d1:cb:ec:b1:0e:a2:c3:a2:a0:3f:
         2f:36:08:bf:6f:7b:c6:c6:4d:ac:24:70:0a:fe:5b:20:51:23:
         16:c1:eb:b9:55:2d:56:e9:0e:b1:51:5d:89:ce:df:d1:82:2a:
         7a:42:9a:67:20:7d:5a:6a:54:ea:35:66:40:be:94:6f:0e:80:
         ef:4f:24:29:e7:8c:ef:ad
-----BEGIN CERTIFICATE-----
MIIGPzCCBCegAwIBAgIBATANBgkqhkiG9w0BAQsFADCBqjELMAkGA1UEBhMCRlIx
DzANBgNVBAgMBkZyYW5jZTERMA8GA1UECgwIU3lzdGVyZWwxMzAxBgNVBAMMKlMy
T1BDIERlbW8gQ2VydGlmaWNhdGUgQXV0aG9yaXR5IGZvciBUZXN0czEoMCYGCSqG
SIb3DQEJARYZczJvcGMtc3VwcG9ydEBzeXN0ZXJlbC5mcjEYMBYGA1UEBwwPQWl4
LWVuLVByb3ZlbmNlMB4XDTIzMDIwMjEwMTQwOVoXDTI1MDIwMTEwMTQwOVowfTEL
MAkGA1UEBhMCRlIxDzANBgNVBAgMBkZyYW5jZTEYMBYGA1UEBwwPQWl4LWVuLVBy
b3ZlbmNlMREwDwYDVQQKDAhTeXN0ZXJlbDEwMC4GA1UEAwwnUzJPUEMgRGVtbyBD
ZXJ0aWZpY2F0ZSBmb3IgQ2xpZW50IFRlc3RzMIICIjANBgkqhkiG9w0BAQEFAAOC
Ag8AMIICCgKCAgEA1VtqFnzLR16kgo1IgGPr+2qeHeQyYoXsD67ps0iZlxEBJUEf
HWPt+81Wx3YJcvttK0c5oqiOt8mbsWDSIYOglxgPAb92RMxDiFZH1aO+ThI7Boia
BSgLknbDFIZ5y3K9fwZaUHEuQdS2ZYFtuR38a6Pc3KLd6FxZukTvLExvOqy3iYsk
YAWlX8820rwEd8JzTgO9gJT3USbFbZPCe+0XNFH7y7MR0v787fkBCdDDycVYs9uy
2WVgSgBxPxC282pN397Fa8hQ9iiPGEhf7bDK2pLlnRJaJFRSrzFgxguGa3B/mSN1
NX16TVYL7OCD2S3gewuly/T0kLXfOCrx+HOjIO5mVdgXoLFJyyRXCqwN2pfKU+LK
+0xq2SKkXzkSXIGB7kI97U97qKd6+64WSf2ON+L1KdKlnwjkaWEFLPecgOsVUsFv
ABcTcora1gv2ou/vmS14uJkNlPpXjgik+v0SREuuoSNN2guzsIeSkZtOXX8bXcM7
S+kRHLqjWSqV7thqz1AtNUVyaHmByaoJK7EOVCF25P9KMIYmqaHP7Q9XFL1Lm959
jEFL79IStvVubhKmOPQBi/GONIi2ISY+ps1MmARR+wwgQHIlTuy1BTT56J5w76kM
Sm/+s4r0KyK3Sw4hm1enMy01TgOtS+d263gKk1Ocxqj6GhmE9MqRwRnRzfkCAwEA
AaOBmzCBmDAdBgNVHQ4EFgQUGH6F4DXIyCWtXKhnaGqzOVA83RkwHwYDVR0jBBgw
FoAUekbL0i8wpP9nKRM5P5wCvwPQcoIwCwYDVR0PBAQDAgTwMBMGA1UdJQQMMAoG
CCsGAQUFBwMCMAkGA1UdEwQCMAAwKQYDVR0RBCIwIIYTdXJuOlMyT1BDOmxvY2Fs
aG9zdIIJbG9jYWxob3N0MA0GCSqGSIb3DQEBCwUAA4ICAQCVhzgPWlXjd4jNYa9n
1UwuU/tx9hwhchQKT/yXIN0MTt9C44rK6HO4SGtlulzQzdq4xwmRrXrU3vNR98fP
2tz0UuuoloP37cRY+hL2SUcarvFlXdm9HQq9egBF7r3W4ebchQsVIxcCAr5gAFfj
f6etw+yElttaTrolJkfHV8nlOkR/uPT67u0OmO6qRdDJGTx/cn8Ta77ZWkX8CefT
x52iN1jIe8/dWLkb8AQHeJxqAmgCKAk2FmjA8imCVh9mCbgIG/jKY6d8JIVl3KEY
f16NExMd4In2MYZyPm+vBknsSWp7U04z7aP6nV0MDQk9mdI3rjMIVLAE053gVdZy
xSY6DUfyv7yibQwSXZSvI7uZl/e1EXchW0aOlSxCHc/5OEX948F7on/3OzC7JYXt
sEQph9w78bQ/SKjcL72RbbfYOpcvKsWQCnhpU9CM00+WBk2WFrRi76uNjtgVlz5K
ktv/103rldyAAHJPNqaWV5H+yhZvKG8eTtAkkK/dK+aGIHvk0yLZt2J/n350Nswf
dKfkee8EBy/oS6SnMADZaasjFHhKPIAAqa1m9++Yq3Tyt6zWAppPQqX43NHL7LEO
osOioD8vNgi/b3vGxk2sJHAK/lsgUSMWweu5VS1W6Q6xUV2Jzt/Rgip6QppnIH1a
alTqNWZAvpRvDoDvTyQp54zvrQ==
-----END CERTIFICATE-----
