Certificate:
    Data:
        Version: 3 (0x2)
        Serial Number: 1 (0x1)
        Signature Algorithm: sha256WithRSAEncryption
        Issuer: C=FR, ST=France, O=Systerel, CN=S2OPC Century Certificate Authority for Tests/emailAddress=s2opc-support@systerel.fr
        Validity
            Not Before: Feb  2 16:56:57 2023 GMT
            Not After : Feb  1 16:56:57 2025 GMT
        Subject: C=FR, ST=France, L=Aix-en-Provence, O=Systerel, CN=S2OPC Demo Certificate for Client Tests
        Subject Public Key Info:
            Public Key Algorithm: rsaEncryption
                RSA Public-Key: (4096 bit)
                Modulus:
                    00:d5:5b:6a:16:7c:cb:47:5e:a4:82:8d:48:80:63:
                    eb:fb:6a:9e:1d:e4:32:62:85:ec:0f:ae:e9:b3:48:
                    99:97:11:01:25:41:1f:1d:63:ed:fb:cd:56:c7:76:
                    09:72:fb:6d:2b:47:39:a2:a8:8e:b7:c9:9b:b1:60:
                    d2:21:83:a0:97:18:0f:01:bf:76:44:cc:43:88:56:
                    47:d5:a3:be:4e:12:3b:06:88:9a:05:28:0b:92:76:
                    c3:14:86:79:cb:72:bd:7f:06:5a:50:71:2e:41:d4:
                    b6:65:81:6d:b9:1d:fc:6b:a3:dc:dc:a2:dd:e8:5c:
                    59:ba:44:ef:2c:4c:6f:3a:ac:b7:89:8b:24:60:05:
                    a5:5f:cf:36:d2:bc:04:77:c2:73:4e:03:bd:80:94:
                    f7:51:26:c5:6d:93:c2:7b:ed:17:34:51:fb:cb:b3:
                    11:d2:fe:fc:ed:f9:01:09:d0:c3:c9:c5:58:b3:db:
                    b2:d9:65:60:4a:00:71:3f:10:b6:f3:6a:4d:df:de:
                    c5:6b:c8:50:f6:28:8f:18:48:5f:ed:b0:ca:da:92:
                    e5:9d:12:5a:24:54:52:af:31:60:c6:0b:86:6b:70:
                    7f:99:23:75:35:7d:7a:4d:56:0b:ec:e0:83:d9:2d:
                    e0:7b:0b:a5:cb:f4:f4:90:b5:df:38:2a:f1:f8:73:
                    a3:20:ee:66:55:d8:17:a0:b1:49:cb:24:57:0a:ac:
                    0d:da:97:ca:53:e2:ca:fb:4c:6a:d9:22:a4:5f:39:
                    12:5c:81:81:ee:42:3d:ed:4f:7b:a8:a7:7a:fb:ae:
                    16:49:fd:8e:37:e2:f5:29:d2:a5:9f:08:e4:69:61:
                    05:2c:f7:9c:80:eb:15:52:c1:6f:00:17:13:72:8a:
                    da:d6:0b:f6:a2:ef:ef:99:2d:78:b8:99:0d:94:fa:
                    57:8e:08:a4:fa:fd:12:44:4b:ae:a1:23:4d:da:0b:
                    b3:b0:87:92:91:9b:4e:5d:7f:1b:5d:c3:3b:4b:e9:
                    11:1c:ba:a3:59:2a:95:ee:d8:6a:cf:50:2d:35:45:
                    72:68:79:81:c9:aa:09:2b:b1:0e:54:21:76:e4:ff:
                    4a:30:86:26:a9:a1:cf:ed:0f:57:14:bd:4b:9b:de:
                    7d:8c:41:4b:ef:d2:12:b6:f5:6e:6e:12:a6:38:f4:
                    01:8b:f1:8e:34:88:b6:21:26:3e:a6:cd:4c:98:04:
                    51:fb:0c:20:40:72:25:4e:ec:b5:05:34:f9:e8:9e:
                    70:ef:a9:0c:4a:6f:fe:b3:8a:f4:2b:22:b7:4b:0e:
                    21:9b:57:a7:33:2d:35:4e:03:ad:4b:e7:76:eb:78:
                    0a:93:53:9c:c6:a8:fa:1a:19:84:f4:ca:91:c1:19:
                    d1:cd:f9
                Exponent: 65537 (0x10001)
        X509v3 extensions:
            X509v3 Subject Key Identifier: 
                18:7E:85:E0:35:C8:C8:25:AD:5C:A8:67:68:6A:B3:39:50:3C:DD:19
            X509v3 Authority Key Identifier: 
                keyid:7A:46:CB:D2:2F:30:A4:FF:67:29:13:39:3F:9C:02:BF:03:D0:72:82

            X509v3 Key Usage: 
                Digital Signature, Non Repudiation, Key Encipherment, Data Encipherment
            X509v3 Extended Key Usage: 
                TLS Web Client Authentication
            X509v3 Basic Constraints: 
                CA:FALSE
            X509v3 Subject Alternative Name: 
                URI:urn:S2OPC:localhost, DNS:localhost
    Signature Algorithm: sha256WithRSAEncryption
         0b:13:b2:38:13:99:68:01:f4:d4:cd:c9:d3:85:46:16:fa:cb:
         44:69:9e:fc:c1:38:a8:34:0c:7f:77:39:e9:92:1a:ef:c7:60:
         a0:fe:bd:28:eb:58:4d:8c:fe:e7:98:5e:ae:af:52:93:21:22:
         c4:0c:92:00:a7:76:0d:2b:1b:56:90:75:3c:e1:6c:8c:e0:58:
         3f:ae:d5:72:a2:c3:3f:77:1d:07:8a:56:52:19:e0:38:17:1e:
         b7:be:42:86:02:f8:d4:98:02:57:f1:01:0a:e0:bb:c1:89:9b:
         ac:49:67:5e:9d:56:37:93:b8:12:d9:58:d8:fb:d9:10:0a:08:
         7f:c6:95:e9:a3:8a:00:4c:fd:5e:ac:6f:be:c5:99:0b:77:1f:
         a6:41:88:df:e1:43:15:de:b3:8d:72:05:95:2d:84:6b:19:d6:
         14:ba:2d:fc:07:88:34:cf:fb:82:12:c4:ce:f3:75:e1:3b:af:
         04:2e:32:85:01:5c:92:b9:e4:94:f0:84:d5:36:cb:c9:22:eb:
         a3:74:6a:f5:2d:ea:26:b1:e7:15:f8:1a:40:30:7e:21:78:ee:
         c8:fa:25:a7:7f:4b:5a:9f:55:fa:18:65:de:6f:10:7d:b2:fe:
         ae:b2:ae:74:e4:ef:25:d8:ba:76:63:5d:aa:47:c6:fd:f5:7b:
         69:85:59:ca:e1:03:f1:26:be:69:f0:47:a0:3e:6d:0a:67:a4:
         64:6e:e5:42:da:55:be:13:0d:1f:ec:7b:1b:95:08:e8:d5:1e:
         ea:58:9a:22:e9:97:25:8b:5d:d1:fe:ec:a9:0c:64:a2:d1:7a:
         9c:cb:0c:01:70:bd:5b:5e:54:a4:62:a9:5b:b4:77:79:db:2e:
         ef:22:a0:e0:44:07:28:43:e1:c7:a0:22:46:54:31:60:3e:fd:
         48:10:5c:22:31:54:b6:6e:72:d9:78:3c:2c:b0:d3:63:8a:ca:
         e8:68:94:9e:8d:7c:db:ef:69:2e:51:70:ee:05:d1:13:99:e4:
         4a:26:1f:11:3b:5f:d8:ae:b7:71:40:25:fd:a3:bb:9b:87:89:
         ec:e1:d9:11:d7:31:ae:ab:6e:b4:cd:a1:fc:51:6b:f9:66:07:
         88:ad:20:10:88:4d:7f:a3:99:97:2b:08:28:cc:d8:0b:5c:bc:
         5c:ec:96:30:85:db:65:57:32:bc:45:0a:49:fd:41:bb:94:e2:
         54:95:cb:a1:2f:b0:f0:61:bd:fa:2b:2e:b2:a3:0e:4b:e5:c0:
         fe:79:6f:1a:02:8a:a3:14:77:6d:5f:6e:16:b3:1b:f2:ab:2f:
         f6:50:c2:f9:a8:af:45:36:f5:2f:de:90:11:25:48:f4:17:38:
         02:4e:64:b1:13:73:28:ba
-----BEGIN CERTIFICATE-----
MIIGKDCCBBCgAwIBAgIBATANBgkqhkiG9w0BAQsFADCBkzELMAkGA1UEBhMCRlIx
DzANBgNVBAgMBkZyYW5jZTERMA8GA1UECgwIU3lzdGVyZWwxNjA0BgNVBAMMLVMy
T1BDIENlbnR1cnkgQ2VydGlmaWNhdGUgQXV0aG9yaXR5IGZvciBUZXN0czEoMCYG
CSqGSIb3DQEJARYZczJvcGMtc3VwcG9ydEBzeXN0ZXJlbC5mcjAeFw0yMzAyMDIx
NjU2NTdaFw0yNTAyMDExNjU2NTdaMH0xCzAJBgNVBAYTAkZSMQ8wDQYDVQQIDAZG
cmFuY2UxGDAWBgNVBAcMD0FpeC1lbi1Qcm92ZW5jZTERMA8GA1UECgwIU3lzdGVy
ZWwxMDAuBgNVBAMMJ1MyT1BDIERlbW8gQ2VydGlmaWNhdGUgZm9yIENsaWVudCBU
ZXN0czCCAiIwDQYJKoZIhvcNAQEBBQADggIPADCCAgoCggIBANVbahZ8y0depIKN
SIBj6/tqnh3kMmKF7A+u6bNImZcRASVBHx1j7fvNVsd2CXL7bStHOaKojrfJm7Fg
0iGDoJcYDwG/dkTMQ4hWR9Wjvk4SOwaImgUoC5J2wxSGectyvX8GWlBxLkHUtmWB
bbkd/Guj3Nyi3ehcWbpE7yxMbzqst4mLJGAFpV/PNtK8BHfCc04DvYCU91EmxW2T
wnvtFzRR+8uzEdL+/O35AQnQw8nFWLPbstllYEoAcT8QtvNqTd/exWvIUPYojxhI
X+2wytqS5Z0SWiRUUq8xYMYLhmtwf5kjdTV9ek1WC+zgg9kt4HsLpcv09JC13zgq
8fhzoyDuZlXYF6CxScskVwqsDdqXylPiyvtMatkipF85ElyBge5CPe1Pe6inevuu
Fkn9jjfi9SnSpZ8I5GlhBSz3nIDrFVLBbwAXE3KK2tYL9qLv75kteLiZDZT6V44I
pPr9EkRLrqEjTdoLs7CHkpGbTl1/G13DO0vpERy6o1kqle7Yas9QLTVFcmh5gcmq
CSuxDlQhduT/SjCGJqmhz+0PVxS9S5vefYxBS+/SErb1bm4Spjj0AYvxjjSItiEm
PqbNTJgEUfsMIEByJU7stQU0+eiecO+pDEpv/rOK9Csit0sOIZtXpzMtNU4DrUvn
dut4CpNTnMao+hoZhPTKkcEZ0c35AgMBAAGjgZswgZgwHQYDVR0OBBYEFBh+heA1
yMglrVyoZ2hqszlQPN0ZMB8GA1UdIwQYMBaAFHpGy9IvMKT/ZykTOT+cAr8D0HKC
MAsGA1UdDwQEAwIE8DATBgNVHSUEDDAKBggrBgEFBQcDAjAJBgNVHRMEAjAAMCkG
A1UdEQQiMCCGE3VybjpTMk9QQzpsb2NhbGhvc3SCCWxvY2FsaG9zdDANBgkqhkiG
9w0BAQsFAAOCAgEACxOyOBOZaAH01M3J04VGFvrLRGme/ME4qDQMf3c56ZIa78dg
oP69KOtYTYz+55herq9SkyEixAySAKd2DSsbVpB1POFsjOBYP67VcqLDP3cdB4pW
UhngOBcet75ChgL41JgCV/EBCuC7wYmbrElnXp1WN5O4EtlY2PvZEAoIf8aV6aOK
AEz9XqxvvsWZC3cfpkGI3+FDFd6zjXIFlS2EaxnWFLot/AeINM/7ghLEzvN14Tuv
BC4yhQFckrnklPCE1TbLySLro3Rq9S3qJrHnFfgaQDB+IXjuyPolp39LWp9V+hhl
3m8QfbL+rrKudOTvJdi6dmNdqkfG/fV7aYVZyuED8Sa+afBHoD5tCmekZG7lQtpV
vhMNH+x7G5UI6NUe6liaIumXJYtd0f7sqQxkotF6nMsMAXC9W15UpGKpW7R3edsu
7yKg4EQHKEPhx6AiRlQxYD79SBBcIjFUtm5y2Xg8LLDTY4rK6GiUno182+9pLlFw
7gXRE5nkSiYfETtf2K63cUAl/aO7m4eJ7OHZEdcxrqtutM2h/FFr+WYHiK0gEIhN
f6OZlysIKMzYC1y8XOyWMIXbZVcyvEUKSf1Bu5TiVJXLoS+w8GG9+isusqMOS+XA
/nlvGgKKoxR3bV9uFrMb8qsv9lDC+aivRTb1L96QESVI9Bc4Ak5ksRNzKLo=
-----END CERTIFICATE-----
