Certificate:
    Data:
        Version: 3 (0x2)
        Serial Number: 6 (0x6)
        Signature Algorithm: sha256WithRSAEncryption
        Issuer: C=FR, ST=France, O=Systerel, CN=S2OPC Century Certificate Authority for Tests/emailAddress=s2opc-support@systerel.fr
        Validity
            Not Before: Jan 22 15:02:54 2025 GMT
            Not After : Jan 20 15:02:54 2035 GMT
        Subject: C=FR, ST=France, L=Aix-en-Provence, O=Systerel, CN=S2OPC Demo Certificate for Client Tests
        Subject Public Key Info:
            Public Key Algorithm: rsaEncryption
                Public-Key: (2048 bit)
                Modulus:
                    00:bb:6d:eb:26:19:2c:e7:56:fe:29:7a:ef:8e:86:
                    69:53:9d:56:80:8b:01:3f:55:0f:61:16:3f:4f:87:
                    9f:f1:8f:8e:da:83:81:39:02:af:d1:dd:5f:cf:a3:
                    46:eb:a7:ab:ce:1d:76:00:28:e2:06:5d:31:81:61:
                    9c:3d:1e:2b:61:e3:92:55:73:c3:61:42:6f:b2:d1:
                    ec:ef:de:b2:5b:60:58:5c:08:55:bb:a8:bc:b0:e2:
                    99:61:bf:21:86:41:69:d6:b9:e7:76:ce:5f:fa:94:
                    78:79:f0:08:ce:ef:5a:22:52:bd:6e:1e:da:4b:f9:
                    ed:d3:d2:b8:e7:34:bb:bc:0d:81:bf:2c:3b:2d:02:
                    90:2d:31:2a:27:8f:b5:8c:5b:52:1a:cd:9e:f6:6f:
                    60:57:47:61:b5:84:1a:8b:0c:e1:05:ba:d0:81:8f:
                    11:22:ca:97:16:15:e9:f3:f0:02:a9:8c:67:3d:a0:
                    e1:83:53:ca:c3:f2:05:70:6c:b9:70:fc:97:5a:5a:
                    38:1f:ec:d4:8c:6d:d9:fb:76:d2:67:a1:39:90:22:
                    00:d6:94:49:e7:ec:9f:24:1d:69:fb:2f:8b:fe:cc:
                    c5:0b:7d:2d:67:06:5b:6f:39:07:bb:ad:60:c5:e4:
                    fc:17:0c:99:b0:46:c7:4a:4e:7d:39:b2:87:4a:c4:
                    dd:e5
                Exponent: 65537 (0x10001)
        X509v3 extensions:
            X509v3 Subject Key Identifier: 
                64:E9:66:9E:14:04:F1:A7:24:30:0B:7A:33:A6:19:C4:C0:8E:D0:79
            X509v3 Authority Key Identifier: 
                7A:46:CB:D2:2F:30:A4:FF:67:29:13:39:3F:9C:02:BF:03:D0:72:82
            X509v3 Key Usage: 
                Digital Signature, Non Repudiation, Key Encipherment, Data Encipherment
            X509v3 Extended Key Usage: 
                TLS Web Client Authentication
            X509v3 Basic Constraints: 
                CA:FALSE
            X509v3 Subject Alternative Name: 
                URI:urn:S2OPC:localhost, DNS:localhost
    Signature Algorithm: sha256WithRSAEncryption
    Signature Value:
        78:6f:c0:4f:8b:e4:aa:25:ee:96:07:ac:c2:45:f6:3a:98:4a:
        bc:6c:af:5a:7b:c6:ca:3b:79:79:bd:a9:f9:dc:d3:9b:a8:b5:
        d0:fd:4c:d0:9c:40:40:b5:be:1e:5d:14:62:8c:f8:41:a2:53:
        ec:be:68:9c:d8:14:c8:5c:35:0a:18:3f:11:ab:33:6c:0f:52:
        af:49:d9:1d:bd:a0:37:80:44:1e:e3:b7:5c:c9:09:ad:97:61:
        87:2d:9c:74:c5:d3:b5:e0:b8:4d:a7:66:bf:e0:9c:a7:40:ba:
        13:f8:1f:2b:6c:e1:8a:66:1d:c9:9b:07:18:a2:9c:36:90:9c:
        6f:a5:77:17:08:ce:75:d0:e1:45:04:94:33:53:7f:6b:94:c7:
        51:5f:5c:e5:f6:d9:07:69:9d:8f:cb:7f:a8:e1:36:5a:35:29:
        e1:9a:88:7f:9b:18:57:53:bf:07:3e:26:f1:57:00:3f:71:48:
        ad:f2:54:14:3d:5b:89:9f:20:28:1c:79:a1:49:b7:5a:77:f6:
        74:e4:d0:80:19:8e:39:ed:07:53:f1:fa:73:46:fc:aa:ee:ea:
        89:6e:f8:67:f1:cd:c6:90:46:16:0b:d6:7e:34:e9:24:f1:77:
        12:a4:c6:75:6c:c4:77:e0:84:d3:95:e3:ca:5f:e9:a7:8f:f5:
        d5:97:a7:b0:11:99:97:b4:b5:44:37:a3:9d:a0:73:d8:7f:4f:
        f2:5d:f3:fe:4f:09:cf:c6:2b:bf:17:1b:3d:d2:7b:56:44:f9:
        e5:9d:e4:ae:4b:73:ec:46:39:24:e1:15:b4:db:67:b1:9b:d3:
        79:2e:67:c5:28:91:0b:78:b7:68:81:71:7c:ef:5b:93:6f:75:
        dc:53:e8:d0:d5:82:81:5d:8b:0c:87:2f:06:70:92:47:e9:d8:
        d7:0f:44:b4:b2:75:59:17:01:7b:f1:4e:71:22:ca:6b:6e:7a:
        68:7f:8c:b9:ae:85:17:ca:d3:3a:2a:23:de:b9:0b:e6:fc:8d:
        6c:14:e3:e7:56:50:62:cd:90:d9:86:be:fe:57:4b:f7:26:17:
        86:bc:83:a6:03:94:e6:48:92:36:df:0b:14:bf:08:41:07:0e:
        a5:98:df:d7:be:08:36:3f:a3:c6:d3:8b:1a:34:56:8f:9d:a3:
        21:d5:d5:ac:50:08:24:34:86:c1:0a:1c:14:b1:ee:8a:d0:d7:
        47:98:f6:60:0a:cc:4b:47:46:34:a8:80:2a:6c:62:5b:20:62:
        82:16:9b:e3:bb:27:42:ca:ac:f8:9d:b1:17:66:98:d0:93:08:
        73:1b:f6:97:fc:fe:e1:0d:e9:0f:33:15:90:47:9c:b6:32:ee:
        7e:17:3d:77:20:7b:d4:6f
-----BEGIN CERTIFICATE-----
MIIFKDCCAxCgAwIBAgIBBjANBgkqhkiG9w0BAQsFADCBkzELMAkGA1UEBhMCRlIx
DzANBgNVBAgMBkZyYW5jZTERMA8GA1UECgwIU3lzdGVyZWwxNjA0BgNVBAMMLVMy
T1BDIENlbnR1cnkgQ2VydGlmaWNhdGUgQXV0aG9yaXR5IGZvciBUZXN0czEoMCYG
CSqGSIb3DQEJARYZczJvcGMtc3VwcG9ydEBzeXN0ZXJlbC5mcjAeFw0yNTAxMjIx
NTAyNTRaFw0zNTAxMjAxNTAyNTRaMH0xCzAJBgNVBAYTAkZSMQ8wDQYDVQQIDAZG
cmFuY2UxGDAWBgNVBAcMD0FpeC1lbi1Qcm92ZW5jZTERMA8GA1UECgwIU3lzdGVy
ZWwxMDAuBgNVBAMMJ1MyT1BDIERlbW8gQ2VydGlmaWNhdGUgZm9yIENsaWVudCBU
ZXN0czCCASIwDQYJKoZIhvcNAQEBBQADggEPADCCAQoCggEBALtt6yYZLOdW/il6
746GaVOdVoCLAT9VD2EWP0+Hn/GPjtqDgTkCr9HdX8+jRuunq84ddgAo4gZdMYFh
nD0eK2HjklVzw2FCb7LR7O/esltgWFwIVbuovLDimWG/IYZBada553bOX/qUeHnw
CM7vWiJSvW4e2kv57dPSuOc0u7wNgb8sOy0CkC0xKiePtYxbUhrNnvZvYFdHYbWE
GosM4QW60IGPESLKlxYV6fPwAqmMZz2g4YNTysPyBXBsuXD8l1paOB/s1Ixt2ft2
0mehOZAiANaUSefsnyQdafsvi/7MxQt9LWcGW285B7utYMXk/BcMmbBGx0pOfTmy
h0rE3eUCAwEAAaOBmzCBmDAdBgNVHQ4EFgQUZOlmnhQE8ackMAt6M6YZxMCO0Hkw
HwYDVR0jBBgwFoAUekbL0i8wpP9nKRM5P5wCvwPQcoIwCwYDVR0PBAQDAgTwMBMG
A1UdJQQMMAoGCCsGAQUFBwMCMAkGA1UdEwQCMAAwKQYDVR0RBCIwIIYTdXJuOlMy
T1BDOmxvY2FsaG9zdIIJbG9jYWxob3N0MA0GCSqGSIb3DQEBCwUAA4ICAQB4b8BP
i+SqJe6WB6zCRfY6mEq8bK9ae8bKO3l5van53NObqLXQ/UzQnEBAtb4eXRRijPhB
olPsvmic2BTIXDUKGD8RqzNsD1KvSdkdvaA3gEQe47dcyQmtl2GHLZx0xdO14LhN
p2a/4JynQLoT+B8rbOGKZh3JmwcYopw2kJxvpXcXCM510OFFBJQzU39rlMdRX1zl
9tkHaZ2Py3+o4TZaNSnhmoh/mxhXU78HPibxVwA/cUit8lQUPVuJnyAoHHmhSbda
d/Z05NCAGY457QdT8fpzRvyq7uqJbvhn8c3GkEYWC9Z+NOkk8XcSpMZ1bMR34ITT
lePKX+mnj/XVl6ewEZmXtLVEN6OdoHPYf0/yXfP+TwnPxiu/Fxs90ntWRPnlneSu
S3PsRjkk4RW022exm9N5LmfFKJELeLdogXF871uTb3XcU+jQ1YKBXYsMhy8GcJJH
6djXD0S0snVZFwF78U5xIsprbnpof4y5roUXytM6KiPeuQvm/I1sFOPnVlBizZDZ
hr7+V0v3JheGvIOmA5TmSJI23wsUvwhBBw6lmN/Xvgg2P6PG04saNFaPnaMh1dWs
UAgkNIbBChwUse6K0NdHmPZgCsxLR0Y0qIAqbGJbIGKCFpvjuydCyqz4nbEXZpjQ
kwhzG/aX/P7hDekPMxWQR5y2Mu5+Fz13IHvUbw==
-----END CERTIFICATE-----
