Certificate:
    Data:
        Version: 3 (0x2)
        Serial Number: 0 (0x0)
        Signature Algorithm: sha256WithRSAEncryption
        Issuer: C=FR, ST=France, O=Systerel, CN=S2OPC Demo Certificate Authority for Tests/emailAddress=s2opc-support@systerel.fr, L=Aix-en-Provence
        Validity
            Not Before: Feb  2 10:14:05 2023 GMT
            Not After : Feb  1 10:14:05 2025 GMT
        Subject: C=FR, ST=France, L=Aix-en-Provence, O=Systerel, CN=S2OPC Demo Certificate for Client Tests
        Subject Public Key Info:
            Public Key Algorithm: rsaEncryption
                RSA Public-Key: (2048 bit)
                Modulus:
                    00:bb:6d:eb:26:19:2c:e7:56:fe:29:7a:ef:8e:86:
                    69:53:9d:56:80:8b:01:3f:55:0f:61:16:3f:4f:87:
                    9f:f1:8f:8e:da:83:81:39:02:af:d1:dd:5f:cf:a3:
                    46:eb:a7:ab:ce:1d:76:00:28:e2:06:5d:31:81:61:
                    9c:3d:1e:2b:61:e3:92:55:73:c3:61:42:6f:b2:d1:
                    ec:ef:de:b2:5b:60:58:5c:08:55:bb:a8:bc:b0:e2:
                    99:61:bf:21:86:41:69:d6:b9:e7:76:ce:5f:fa:94:
                    78:79:f0:08:ce:ef:5a:22:52:bd:6e:1e:da:4b:f9:
                    ed:d3:d2:b8:e7:34:bb:bc:0d:81:bf:2c:3b:2d:02:
                    90:2d:31:2a:27:8f:b5:8c:5b:52:1a:cd:9e:f6:6f:
                    60:57:47:61:b5:84:1a:8b:0c:e1:05:ba:d0:81:8f:
                    11:22:ca:97:16:15:e9:f3:f0:02:a9:8c:67:3d:a0:
                    e1:83:53:ca:c3:f2:05:70:6c:b9:70:fc:97:5a:5a:
                    38:1f:ec:d4:8c:6d:d9:fb:76:d2:67:a1:39:90:22:
                    00:d6:94:49:e7:ec:9f:24:1d:69:fb:2f:8b:fe:cc:
                    c5:0b:7d:2d:67:06:5b:6f:39:07:bb:ad:60:c5:e4:
                    fc:17:0c:99:b0:46:c7:4a:4e:7d:39:b2:87:4a:c4:
                    dd:e5
                Exponent: 65537 (0x10001)
        X509v3 extensions:
            X509v3 Subject Key Identifier: 
                64:E9:66:9E:14:04:F1:A7:24:30:0B:7A:33:A6:19:C4:C0:8E:D0:79
            X509v3 Authority Key Identifier: 
                keyid:7A:46:CB:D2:2F:30:A4:FF:67:29:13:39:3F:9C:02:BF:03:D0:72:82

            X509v3 Key Usage: 
                Digital Signature, Non Repudiation, Key Encipherment, Data Encipherment
            X509v3 Extended Key Usage: 
                TLS Web Client Authentication
            X509v3 Basic Constraints: 
                CA:FALSE
            X509v3 Subject Alternative Name: 
                URI:urn:S2OPC:localhost, DNS:localhost
    Signature Algorithm: sha256WithRSAEncryption
         b0:be:ca:aa:8c:0e:dc:ba:e0:9d:6a:d0:b6:16:8a:64:87:d7:
         1f:a6:81:8b:57:6b:9c:55:98:25:bf:2e:22:be:41:07:ee:e3:
         bc:0e:87:eb:f0:92:0d:c2:02:64:32:a1:c1:e1:c1:d7:71:1c:
         c3:62:9e:bd:e9:df:13:f9:fe:c6:33:c2:12:03:56:a4:e0:80:
         25:75:54:51:bf:2b:42:51:31:d1:28:2f:4d:d3:d0:52:03:2d:
         10:a5:e9:eb:76:b5:60:e0:bb:ff:97:5d:5d:ab:1e:63:6c:ed:
         bd:0f:6d:61:f5:a6:3f:e2:52:3e:3f:9b:44:b2:18:ba:91:b3:
         58:bd:0d:df:18:1b:12:0d:1c:e3:82:a1:70:da:0d:ed:7f:47:
         25:58:b1:85:d8:77:15:93:f9:9d:4c:9d:ba:d4:a8:f3:87:ee:
         a7:95:73:72:0e:5a:55:44:23:41:5e:4a:22:0e:e2:d8:6f:e8:
         ca:53:a2:70:6b:98:cd:4a:ea:d2:c0:b1:dd:e8:ce:fd:2e:05:
         8d:d8:b9:b7:5a:e1:55:94:f9:2d:2a:c7:1b:3e:a6:8a:91:ed:
         58:52:86:7b:dd:86:03:5f:17:0e:2f:3f:82:c4:41:48:95:b7:
         be:87:8c:ba:27:c3:ac:e8:d3:33:c8:35:df:88:b1:37:51:36:
         00:78:38:0d:60:93:a4:9b:4d:78:3b:09:5d:2f:ea:3e:5c:d7:
         9c:2d:c0:a9:ec:96:9a:26:4b:ff:88:f5:fb:91:2c:fe:12:e7:
         4a:f2:ee:dd:1b:1f:a7:50:96:ec:d4:cb:1a:07:d1:26:76:61:
         0d:95:ae:27:95:93:e4:06:7f:77:e9:b5:f9:a6:20:88:43:cc:
         9d:9e:15:c5:98:8d:6e:94:ae:a4:d9:9e:f9:b2:e4:b9:3c:ba:
         62:0c:15:42:3b:23:8b:46:3d:f6:8b:32:66:55:57:13:62:23:
         70:7a:b9:ca:ba:34:e5:e5:b0:10:ee:e9:85:f4:96:c3:4c:82:
         e9:00:71:5d:cd:8c:f8:c2:d0:e5:03:fd:86:d1:23:31:99:9e:
         d8:f8:c4:4a:80:b7:6d:04:6f:cf:46:19:b4:c8:23:dc:f3:24:
         df:a7:e8:af:4c:f9:bb:46:37:0d:ab:af:c9:d2:94:57:77:97:
         cc:43:cc:b6:37:a4:9f:af:2d:ae:68:89:e5:2a:ea:b8:bb:ba:
         85:55:bf:68:97:f8:ed:a6:9f:9a:a9:14:25:b0:4e:86:3b:6f:
         25:2d:da:e0:fd:dc:d8:21:cc:9c:9b:e9:54:e3:ab:0e:22:63:
         23:b2:c8:c6:a4:f8:6a:ff:c4:29:1e:b8:79:d5:b4:48:d2:b2:
         2a:ff:f3:62:47:88:d0:d2
-----BEGIN CERTIFICATE-----
MIIFPzCCAyegAwIBAgIBADANBgkqhkiG9w0BAQsFADCBqjELMAkGA1UEBhMCRlIx
DzANBgNVBAgMBkZyYW5jZTERMA8GA1UECgwIU3lzdGVyZWwxMzAxBgNVBAMMKlMy
T1BDIERlbW8gQ2VydGlmaWNhdGUgQXV0aG9yaXR5IGZvciBUZXN0czEoMCYGCSqG
SIb3DQEJARYZczJvcGMtc3VwcG9ydEBzeXN0ZXJlbC5mcjEYMBYGA1UEBwwPQWl4
LWVuLVByb3ZlbmNlMB4XDTIzMDIwMjEwMTQwNVoXDTI1MDIwMTEwMTQwNVowfTEL
MAkGA1UEBhMCRlIxDzANBgNVBAgMBkZyYW5jZTEYMBYGA1UEBwwPQWl4LWVuLVBy
b3ZlbmNlMREwDwYDVQQKDAhTeXN0ZXJlbDEwMC4GA1UEAwwnUzJPUEMgRGVtbyBD
ZXJ0aWZpY2F0ZSBmb3IgQ2xpZW50IFRlc3RzMIIBIjANBgkqhkiG9w0BAQEFAAOC
AQ8AMIIBCgKCAQEAu23rJhks51b+KXrvjoZpU51WgIsBP1UPYRY/T4ef8Y+O2oOB
OQKv0d1fz6NG66erzh12ACjiBl0xgWGcPR4rYeOSVXPDYUJvstHs796yW2BYXAhV
u6i8sOKZYb8hhkFp1rnnds5f+pR4efAIzu9aIlK9bh7aS/nt09K45zS7vA2Bvyw7
LQKQLTEqJ4+1jFtSGs2e9m9gV0dhtYQaiwzhBbrQgY8RIsqXFhXp8/ACqYxnPaDh
g1PKw/IFcGy5cPyXWlo4H+zUjG3Z+3bSZ6E5kCIA1pRJ5+yfJB1p+y+L/szFC30t
ZwZbbzkHu61gxeT8FwyZsEbHSk59ObKHSsTd5QIDAQABo4GbMIGYMB0GA1UdDgQW
BBRk6WaeFATxpyQwC3ozphnEwI7QeTAfBgNVHSMEGDAWgBR6RsvSLzCk/2cpEzk/
nAK/A9BygjALBgNVHQ8EBAMCBPAwEwYDVR0lBAwwCgYIKwYBBQUHAwIwCQYDVR0T
BAIwADApBgNVHREEIjAghhN1cm46UzJPUEM6bG9jYWxob3N0gglsb2NhbGhvc3Qw
DQYJKoZIhvcNAQELBQADggIBALC+yqqMDty64J1q0LYWimSH1x+mgYtXa5xVmCW/
LiK+QQfu47wOh+vwkg3CAmQyocHhwddxHMNinr3p3xP5/sYzwhIDVqTggCV1VFG/
K0JRMdEoL03T0FIDLRCl6et2tWDgu/+XXV2rHmNs7b0PbWH1pj/iUj4/m0SyGLqR
s1i9Dd8YGxINHOOCoXDaDe1/RyVYsYXYdxWT+Z1MnbrUqPOH7qeVc3IOWlVEI0Fe
SiIO4thv6MpTonBrmM1K6tLAsd3ozv0uBY3Yubda4VWU+S0qxxs+poqR7VhShnvd
hgNfFw4vP4LEQUiVt76HjLonw6zo0zPINd+IsTdRNgB4OA1gk6SbTXg7CV0v6j5c
15wtwKnslpomS/+I9fuRLP4S50ry7t0bH6dQluzUyxoH0SZ2YQ2VrieVk+QGf3fp
tfmmIIhDzJ2eFcWYjW6UrqTZnvmy5Lk8umIMFUI7I4tGPfaLMmZVVxNiI3B6ucq6
NOXlsBDu6YX0lsNMgukAcV3NjPjC0OUD/YbRIzGZntj4xEqAt20Eb89GGbTII9zz
JN+n6K9M+btGNw2rr8nSlFd3l8xDzLY3pJ+vLa5oieUq6ri7uoVVv2iX+O2mn5qp
FCWwToY7byUt2uD93NghzJyb6VTjqw4iYyOyyMak+Gr/xCkeuHnVtEjSsir/82JH
iNDS
-----END CERTIFICATE-----
