Certificate:
    Data:
        Version: 3 (0x2)
        Serial Number: 3 (0x3)
        Signature Algorithm: sha256WithRSAEncryption
        Issuer: C=FR, ST=France, O=Systerel, CN=S2OPC Century Certificate Authority for Tests/emailAddress=s2opc-support@systerel.fr
        Validity
            Not Before: Feb  2 16:57:01 2023 GMT
            Not After : Feb  1 16:57:01 2025 GMT
        Subject: C=FR, ST=France, L=Aix-en-Provence, O=Systerel, CN=S2OPC Demo Certificate for Server Tests
        Subject Public Key Info:
            Public Key Algorithm: rsaEncryption
                RSA Public-Key: (4096 bit)
                Modulus:
                    00:db:b9:a2:cc:46:fe:b8:8f:f1:8b:21:62:97:8a:
                    fc:c3:ba:5e:97:9e:88:f9:70:b1:11:d7:67:ac:f2:
                    19:43:02:48:54:42:19:e1:8d:0d:45:b2:50:c8:20:
                    10:54:bb:2a:5d:94:23:22:3e:89:1d:aa:75:da:cb:
                    49:88:92:49:ee:0e:a3:86:3b:ba:29:ff:4d:9c:64:
                    ec:b0:7c:52:10:51:40:9a:2e:c5:67:4c:c4:c8:c4:
                    3a:47:0b:a7:4f:61:b5:34:4b:30:63:23:aa:6f:19:
                    ce:7a:78:a1:36:38:f1:e3:0f:5b:ca:9c:d3:32:07:
                    38:1c:8e:2e:6d:29:f0:00:2d:47:23:a7:73:6a:e4:
                    1f:2e:94:28:58:3a:ae:ab:85:5b:59:e8:39:78:aa:
                    b1:af:d3:37:8b:c7:cd:18:11:5c:c2:84:9e:08:d7:
                    fd:64:21:9b:bb:4e:a2:b4:dd:83:18:a1:00:fb:0b:
                    6a:41:a4:52:de:bd:30:e4:b0:86:6f:ea:4d:50:af:
                    ea:75:4a:49:22:58:87:46:7c:55:ed:92:83:c3:d1:
                    a9:7d:50:77:2a:14:fc:f2:3d:2e:68:6a:b1:41:00:
                    ac:4b:3a:4a:a8:20:33:df:ae:70:58:80:b9:ba:b7:
                    0d:ee:b4:b8:86:32:c0:38:77:d2:80:23:67:38:2b:
                    64:e6:03:f4:f4:28:d4:b9:a3:3b:6e:13:ef:33:dc:
                    f6:7d:da:7f:f6:02:cf:ed:30:fd:fd:75:27:ac:24:
                    d8:1d:35:d7:c1:80:fb:2c:f8:35:a0:e7:56:4a:af:
                    bf:f5:3c:51:d1:7e:b8:89:6d:25:f7:be:64:93:58:
                    2f:1a:bb:43:40:77:ec:59:34:98:11:c4:7d:af:fd:
                    64:7d:b0:88:dc:2f:2f:6e:a3:b7:7d:ed:d3:2b:69:
                    0e:2d:66:8a:d1:bd:c5:5b:04:91:8d:f4:10:ab:4c:
                    93:c8:da:d9:62:8e:38:f4:08:bc:92:93:66:85:fc:
                    a2:05:77:14:53:08:1d:11:6e:f6:d9:d8:d1:1d:be:
                    a6:c0:fa:af:10:47:bc:06:43:48:0e:99:ca:77:21:
                    f3:61:8e:a7:af:80:98:c7:9c:a7:f8:7a:dc:5b:47:
                    b8:80:1c:47:51:83:04:af:1c:5c:71:c7:6c:22:5d:
                    ab:b8:04:ff:cc:76:58:88:1a:26:ac:59:cf:df:e6:
                    81:a8:98:0b:ef:7f:a2:0d:e1:8e:d6:f8:5a:37:75:
                    1e:cb:fe:f6:05:59:bf:79:6a:65:d3:e8:cd:61:71:
                    e8:eb:34:ba:66:58:3f:0f:17:f0:b2:83:d8:2a:80:
                    7d:70:5d:83:7b:21:b3:fc:2d:db:d0:cf:bd:9f:a6:
                    c8:df:6f
                Exponent: 65537 (0x10001)
        X509v3 extensions:
            X509v3 Subject Key Identifier: 
                B6:2C:7F:07:27:96:7D:5E:96:DC:FE:6E:7B:C6:8F:9F:56:59:BB:75
            X509v3 Authority Key Identifier: 
                keyid:7A:46:CB:D2:2F:30:A4:FF:67:29:13:39:3F:9C:02:BF:03:D0:72:82

            X509v3 Key Usage: 
                Digital Signature, Non Repudiation, Key Encipherment, Data Encipherment
            X509v3 Extended Key Usage: 
                TLS Web Server Authentication
            X509v3 Basic Constraints: 
                CA:FALSE
            X509v3 Subject Alternative Name: 
                URI:urn:S2OPC:localhost, DNS:localhost
    Signature Algorithm: sha256WithRSAEncryption
         cf:4a:e9:8a:5c:bb:3e:f3:99:21:a1:93:1f:65:e8:69:97:f0:
         f8:53:c3:d6:b4:af:11:ae:f9:bf:62:6e:08:20:a7:ff:db:f3:
         8b:24:37:d2:88:a2:2e:42:e3:a5:f6:69:fa:c6:ff:d3:72:97:
         da:0f:6d:20:40:14:30:9a:ef:2b:9e:55:d8:cc:4d:82:c1:3d:
         ec:a0:47:ef:88:54:41:f6:1b:2e:39:3f:c3:4d:4d:2d:f1:94:
         31:33:18:68:df:b5:a7:30:13:0b:d9:02:3d:83:0a:80:54:5f:
         a8:8f:27:e7:ea:27:2f:f2:c0:48:21:b8:2c:a4:b2:fd:52:fd:
         57:81:69:61:c9:82:42:e4:b8:94:f5:0b:72:03:7a:53:02:78:
         f9:27:4a:58:1c:e3:ed:65:61:99:73:4a:1a:1a:4e:0a:fe:e3:
         70:3b:d0:46:73:ca:a3:47:3d:93:f3:1b:ce:ba:3d:ea:1a:37:
         2f:a7:ad:3a:cc:ce:5c:4e:19:25:b3:d8:85:e7:04:69:81:a3:
         9b:21:07:2d:54:53:1e:e9:04:5e:94:5b:9e:40:23:4d:57:96:
         06:0e:8e:c1:58:b5:0d:43:06:bc:1b:bd:6e:78:ec:91:99:5e:
         e1:cd:1d:55:ae:73:e4:24:71:4f:34:64:d5:3a:ed:03:64:88:
         52:05:68:ee:d0:b8:38:23:e0:33:03:b3:f5:c0:20:81:7f:3f:
         61:b1:5e:b5:76:71:7f:12:3d:ac:b2:0b:75:e3:2b:19:69:b1:
         7d:23:c0:81:12:49:01:d6:2d:55:a1:87:e0:5f:ff:21:1c:31:
         a8:d8:5a:8f:33:da:cc:5f:96:6c:2d:b8:c8:67:7a:4c:22:ce:
         2c:83:36:2b:0b:34:45:c4:bc:21:e9:3c:2b:bd:2c:c8:eb:d5:
         98:48:1f:5c:82:fa:01:18:cb:66:35:bc:e5:84:ab:e4:00:be:
         5c:9f:24:5d:12:14:a1:9f:82:44:bb:c6:cf:3c:22:12:69:b0:
         ba:1e:2c:8c:ec:92:67:6f:b2:f4:b3:eb:34:fe:ff:be:bd:7a:
         a4:d7:ad:9c:b8:fb:06:d3:23:bf:6d:88:00:82:79:1e:85:af:
         91:23:04:b2:89:91:6a:7c:24:8c:ce:7f:00:3f:e3:7b:5d:1a:
         93:2a:9c:93:f9:9e:8b:5f:bf:bc:30:9e:7d:0e:bd:07:bd:ea:
         f0:9c:aa:23:8d:a4:5c:95:90:52:94:73:76:d8:cb:f7:5f:e3:
         d1:4a:2e:4e:02:f3:44:2c:a1:aa:68:77:7b:b2:f3:dc:dc:27:
         c6:7a:20:97:60:fe:09:1c:ab:fc:1b:a7:1c:91:92:fd:20:e5:
         19:e1:ca:d4:f3:34:a5:e7
-----BEGIN CERTIFICATE-----
MIIGKDCCBBCgAwIBAgIBAzANBgkqhkiG9w0BAQsFADCBkzELMAkGA1UEBhMCRlIx
DzANBgNVBAgMBkZyYW5jZTERMA8GA1UECgwIU3lzdGVyZWwxNjA0BgNVBAMMLVMy
T1BDIENlbnR1cnkgQ2VydGlmaWNhdGUgQXV0aG9yaXR5IGZvciBUZXN0czEoMCYG
CSqGSIb3DQEJARYZczJvcGMtc3VwcG9ydEBzeXN0ZXJlbC5mcjAeFw0yMzAyMDIx
NjU3MDFaFw0yNTAyMDExNjU3MDFaMH0xCzAJBgNVBAYTAkZSMQ8wDQYDVQQIDAZG
cmFuY2UxGDAWBgNVBAcMD0FpeC1lbi1Qcm92ZW5jZTERMA8GA1UECgwIU3lzdGVy
ZWwxMDAuBgNVBAMMJ1MyT1BDIERlbW8gQ2VydGlmaWNhdGUgZm9yIFNlcnZlciBU
ZXN0czCCAiIwDQYJKoZIhvcNAQEBBQADggIPADCCAgoCggIBANu5osxG/riP8Ysh
YpeK/MO6XpeeiPlwsRHXZ6zyGUMCSFRCGeGNDUWyUMggEFS7Kl2UIyI+iR2qddrL
SYiSSe4Oo4Y7uin/TZxk7LB8UhBRQJouxWdMxMjEOkcLp09htTRLMGMjqm8Zznp4
oTY48eMPW8qc0zIHOByOLm0p8AAtRyOnc2rkHy6UKFg6rquFW1noOXiqsa/TN4vH
zRgRXMKEngjX/WQhm7tOorTdgxihAPsLakGkUt69MOSwhm/qTVCv6nVKSSJYh0Z8
Ve2Sg8PRqX1QdyoU/PI9LmhqsUEArEs6SqggM9+ucFiAubq3De60uIYywDh30oAj
ZzgrZOYD9PQo1LmjO24T7zPc9n3af/YCz+0w/f11J6wk2B0118GA+yz4NaDnVkqv
v/U8UdF+uIltJfe+ZJNYLxq7Q0B37Fk0mBHEfa/9ZH2wiNwvL26jt33t0ytpDi1m
itG9xVsEkY30EKtMk8ja2WKOOPQIvJKTZoX8ogV3FFMIHRFu9tnY0R2+psD6rxBH
vAZDSA6Zynch82GOp6+AmMecp/h63FtHuIAcR1GDBK8cXHHHbCJdq7gE/8x2WIga
JqxZz9/mgaiYC+9/og3hjtb4Wjd1Hsv+9gVZv3lqZdPozWFx6Os0umZYPw8X8LKD
2CqAfXBdg3shs/wt29DPvZ+myN9vAgMBAAGjgZswgZgwHQYDVR0OBBYEFLYsfwcn
ln1eltz+bnvGj59WWbt1MB8GA1UdIwQYMBaAFHpGy9IvMKT/ZykTOT+cAr8D0HKC
MAsGA1UdDwQEAwIE8DATBgNVHSUEDDAKBggrBgEFBQcDATAJBgNVHRMEAjAAMCkG
A1UdEQQiMCCGE3VybjpTMk9QQzpsb2NhbGhvc3SCCWxvY2FsaG9zdDANBgkqhkiG
9w0BAQsFAAOCAgEAz0rpily7PvOZIaGTH2XoaZfw+FPD1rSvEa75v2JuCCCn/9vz
iyQ30oiiLkLjpfZp+sb/03KX2g9tIEAUMJrvK55V2MxNgsE97KBH74hUQfYbLjk/
w01NLfGUMTMYaN+1pzATC9kCPYMKgFRfqI8n5+onL/LASCG4LKSy/VL9V4FpYcmC
QuS4lPULcgN6UwJ4+SdKWBzj7WVhmXNKGhpOCv7jcDvQRnPKo0c9k/Mbzro96ho3
L6etOszOXE4ZJbPYhecEaYGjmyEHLVRTHukEXpRbnkAjTVeWBg6OwVi1DUMGvBu9
bnjskZle4c0dVa5z5CRxTzRk1TrtA2SIUgVo7tC4OCPgMwOz9cAggX8/YbFetXZx
fxI9rLILdeMrGWmxfSPAgRJJAdYtVaGH4F//IRwxqNhajzPazF+WbC24yGd6TCLO
LIM2Kws0RcS8Iek8K70syOvVmEgfXIL6ARjLZjW85YSr5AC+XJ8kXRIUoZ+CRLvG
zzwiEmmwuh4sjOySZ2+y9LPrNP7/vr16pNetnLj7BtMjv22IAIJ5HoWvkSMEsomR
anwkjM5/AD/je10akyqck/mei1+/vDCefQ69B73q8JyqI42kXJWQUpRzdtjL91/j
0UouTgLzRCyhqmh3e7Lz3Nwnxnogl2D+CRyr/BunHJGS/SDlGeHK1PM0pec=
-----END CERTIFICATE-----
