Certificate:
    Data:
        Version: 3 (0x2)
        Serial Number: 2 (0x2)
        Signature Algorithm: sha256WithRSAEncryption
        Issuer: C=FR, ST=France, O=Systerel, CN=S2OPC Century Certificate Authority for Tests/emailAddress=s2opc-support@systerel.fr
        Validity
            Not Before: Feb  2 16:56:59 2023 GMT
            Not After : Feb  1 16:56:59 2025 GMT
        Subject: C=FR, ST=France, L=Aix-en-Provence, O=Systerel, CN=S2OPC Demo Certificate for Server Tests
        Subject Public Key Info:
            Public Key Algorithm: rsaEncryption
                RSA Public-Key: (2048 bit)
                Modulus:
                    00:9b:b3:fc:e0:a5:80:5a:86:80:35:e5:b1:bb:e1:
                    61:af:33:be:45:96:c9:02:9f:e7:28:9e:3c:48:52:
                    c9:ad:a1:05:42:5f:96:bf:73:29:41:12:3e:6d:e1:
                    a7:35:cc:64:42:29:e8:95:e3:5b:a4:18:0c:37:ef:
                    e7:05:f1:37:6b:e6:50:c8:f4:c6:e1:26:ce:a0:f8:
                    0d:52:a0:33:cf:76:83:e1:27:a1:e6:ae:33:6b:b0:
                    78:9c:48:fe:82:bd:0b:c6:5a:c5:33:ea:7a:60:57:
                    39:c0:73:76:ce:f6:08:8c:f8:81:ee:52:eb:6a:e0:
                    4f:c6:dc:10:cd:70:59:a1:b8:55:15:31:72:1d:71:
                    48:6b:bb:8f:ba:8f:1d:28:98:cf:ca:99:1d:ff:31:
                    c7:1d:a7:f7:2b:08:30:3b:45:3f:ff:bb:17:11:17:
                    ec:ce:d9:33:09:23:3f:e1:17:2f:cb:61:84:b7:6d:
                    6d:05:56:71:ba:56:d2:d5:61:f0:8c:a2:82:8f:97:
                    c7:2c:10:89:9c:60:31:27:fc:98:72:5a:1b:81:84:
                    a1:a4:9b:84:33:24:00:d2:3d:92:f3:fd:5a:8b:75:
                    90:5b:3f:ac:bb:f7:2e:3b:80:cd:e8:6a:be:cf:50:
                    6e:5f:4e:75:1f:e2:fd:3d:16:9e:b0:2d:56:74:ef:
                    c6:af
                Exponent: 65537 (0x10001)
        X509v3 extensions:
            X509v3 Subject Key Identifier: 
                67:45:AA:CC:41:25:41:D8:E1:D5:50:21:FD:83:E5:77:A3:F4:E3:EA
            X509v3 Authority Key Identifier: 
                keyid:7A:46:CB:D2:2F:30:A4:FF:67:29:13:39:3F:9C:02:BF:03:D0:72:82

            X509v3 Key Usage: 
                Digital Signature, Non Repudiation, Key Encipherment, Data Encipherment
            X509v3 Extended Key Usage: 
                TLS Web Server Authentication
            X509v3 Basic Constraints: 
                CA:FALSE
            X509v3 Subject Alternative Name: 
                URI:urn:S2OPC:localhost, DNS:localhost
    Signature Algorithm: sha256WithRSAEncryption
         b3:4b:68:11:98:a6:58:26:b4:2d:85:e7:c4:5a:5a:e3:12:51:
         49:1a:d8:1e:44:16:54:7a:53:47:e7:23:e6:29:f1:ee:fc:b6:
         ab:10:1a:fb:a4:88:d4:ae:37:0e:6c:af:5d:0a:e5:6e:9e:bc:
         82:9b:12:b3:fc:58:0a:88:f7:84:d2:58:b3:16:44:f8:1e:19:
         c3:8e:62:f8:f2:95:ef:d1:c2:73:3e:75:22:60:31:2b:97:08:
         8e:65:40:62:6a:af:d3:52:0b:9b:77:ec:4d:1a:98:fe:51:ca:
         72:e4:c0:e3:90:08:29:e2:25:76:d5:04:02:01:f6:88:6c:7d:
         5d:26:05:0f:cb:8d:02:8d:12:52:c5:b2:84:ba:7f:e6:6a:d9:
         c6:9b:95:78:88:02:3c:89:df:d1:c1:b7:d4:53:21:7f:9e:6b:
         d7:f6:32:ad:cc:9d:c3:35:e6:3b:7d:27:2d:d8:ac:fd:3c:c1:
         a9:8e:f3:e1:d5:d1:d9:3d:2d:07:eb:24:87:d3:68:e9:2d:cf:
         92:92:82:63:5e:7c:9f:2a:ab:35:a8:15:67:28:ce:0f:11:b1:
         86:2d:df:02:1e:3e:9a:3c:f9:02:82:93:b3:cb:67:c6:78:f2:
         b4:ee:fe:80:a4:8f:81:a6:20:aa:f8:d9:29:c3:8f:2b:9b:c7:
         1c:3c:17:cb:1b:9e:50:41:ba:b5:e2:34:9f:cf:7a:88:2f:e2:
         97:96:c7:57:4f:34:b8:d5:87:05:01:a7:af:1d:58:22:ba:1e:
         45:eb:0f:56:64:e5:97:87:1a:cc:0d:67:d2:da:eb:a1:e7:88:
         e7:19:13:84:42:cc:e9:cf:f9:71:15:91:18:4a:91:c6:36:e1:
         66:26:e5:88:d1:95:8f:51:43:71:cb:d2:4d:84:ad:c9:bd:12:
         c4:e0:e9:07:51:bd:74:ab:d4:d7:58:ed:0d:31:db:ce:0d:e4:
         ed:4e:28:b0:75:74:d3:6f:0e:02:ad:e8:b1:c6:df:cf:f9:45:
         e8:48:3c:10:af:7e:59:20:48:f9:41:0e:26:f4:2c:86:66:61:
         3c:ed:81:4f:5d:66:13:be:81:f5:91:8e:e3:1c:b4:a7:86:d1:
         90:39:e6:b0:63:45:de:00:4f:ff:da:25:db:8f:9f:66:3d:d8:
         ae:87:92:d1:c0:a5:e5:1b:5a:c3:fe:49:2b:f1:4c:bb:e4:c4:
         18:6b:2b:10:6f:d9:a4:ed:23:37:16:3a:89:a7:58:09:2b:4e:
         5b:4e:1d:25:7b:5a:e8:14:a1:f2:15:01:a8:c9:95:62:e3:e5:
         ec:c1:d8:80:7f:a2:27:89:de:9e:ba:fd:56:67:9a:c3:31:e3:
         0c:b1:f3:d0:4c:f4:93:40
-----BEGIN CERTIFICATE-----
MIIFKDCCAxCgAwIBAgIBAjANBgkqhkiG9w0BAQsFADCBkzELMAkGA1UEBhMCRlIx
DzANBgNVBAgMBkZyYW5jZTERMA8GA1UECgwIU3lzdGVyZWwxNjA0BgNVBAMMLVMy
T1BDIENlbnR1cnkgQ2VydGlmaWNhdGUgQXV0aG9yaXR5IGZvciBUZXN0czEoMCYG
CSqGSIb3DQEJARYZczJvcGMtc3VwcG9ydEBzeXN0ZXJlbC5mcjAeFw0yMzAyMDIx
NjU2NTlaFw0yNTAyMDExNjU2NTlaMH0xCzAJBgNVBAYTAkZSMQ8wDQYDVQQIDAZG
cmFuY2UxGDAWBgNVBAcMD0FpeC1lbi1Qcm92ZW5jZTERMA8GA1UECgwIU3lzdGVy
ZWwxMDAuBgNVBAMMJ1MyT1BDIERlbW8gQ2VydGlmaWNhdGUgZm9yIFNlcnZlciBU
ZXN0czCCASIwDQYJKoZIhvcNAQEBBQADggEPADCCAQoCggEBAJuz/OClgFqGgDXl
sbvhYa8zvkWWyQKf5yiePEhSya2hBUJflr9zKUESPm3hpzXMZEIp6JXjW6QYDDfv
5wXxN2vmUMj0xuEmzqD4DVKgM892g+EnoeauM2uweJxI/oK9C8ZaxTPqemBXOcBz
ds72CIz4ge5S62rgT8bcEM1wWaG4VRUxch1xSGu7j7qPHSiYz8qZHf8xxx2n9ysI
MDtFP/+7FxEX7M7ZMwkjP+EXL8thhLdtbQVWcbpW0tVh8Iyigo+XxywQiZxgMSf8
mHJaG4GEoaSbhDMkANI9kvP9Wot1kFs/rLv3LjuAzehqvs9Qbl9OdR/i/T0WnrAt
VnTvxq8CAwEAAaOBmzCBmDAdBgNVHQ4EFgQUZ0WqzEElQdjh1VAh/YPld6P04+ow
HwYDVR0jBBgwFoAUekbL0i8wpP9nKRM5P5wCvwPQcoIwCwYDVR0PBAQDAgTwMBMG
A1UdJQQMMAoGCCsGAQUFBwMBMAkGA1UdEwQCMAAwKQYDVR0RBCIwIIYTdXJuOlMy
T1BDOmxvY2FsaG9zdIIJbG9jYWxob3N0MA0GCSqGSIb3DQEBCwUAA4ICAQCzS2gR
mKZYJrQthefEWlrjElFJGtgeRBZUelNH5yPmKfHu/LarEBr7pIjUrjcObK9dCuVu
nryCmxKz/FgKiPeE0lizFkT4HhnDjmL48pXv0cJzPnUiYDErlwiOZUBiaq/TUgub
d+xNGpj+Ucpy5MDjkAgp4iV21QQCAfaIbH1dJgUPy40CjRJSxbKEun/matnGm5V4
iAI8id/RwbfUUyF/nmvX9jKtzJ3DNeY7fSct2Kz9PMGpjvPh1dHZPS0H6ySH02jp
Lc+SkoJjXnyfKqs1qBVnKM4PEbGGLd8CHj6aPPkCgpOzy2fGePK07v6ApI+BpiCq
+Nkpw48rm8ccPBfLG55QQbq14jSfz3qIL+KXlsdXTzS41YcFAaevHVgiuh5F6w9W
ZOWXhxrMDWfS2uuh54jnGROEQszpz/lxFZEYSpHGNuFmJuWI0ZWPUUNxy9JNhK3J
vRLE4OkHUb10q9TXWO0NMdvODeTtTiiwdXTTbw4Creixxt/P+UXoSDwQr35ZIEj5
QQ4m9CyGZmE87YFPXWYTvoH1kY7jHLSnhtGQOeawY0XeAE//2iXbj59mPdiuh5LR
wKXlG1rD/kkr8Uy75MQYaysQb9mk7SM3FjqJp1gJK05bTh0le1roFKHyFQGoyZVi
4+XswdiAf6Inid6euv1WZ5rDMeMMsfPQTPSTQA==
-----END CERTIFICATE-----
