Certificate:
    Data:
        Version: 3 (0x2)
        Serial Number: 92 (0x5c)
    Signature Algorithm: sha256WithRSAEncryption
        Issuer: C=FR, ST=France, O=Systerel, CN=S2OPC Century Certificate Authority for Tests/emailAddress=s2opc-support@systerel.fr
        Validity
            Not Before: Nov 19 16:06:32 2019 GMT
            Not After : Oct 26 16:06:32 2119 GMT
        Subject: C=FR, ST=France, O=Systerel, CN=S2OPC Century Certificate for Test Servers
        Subject Public Key Info:
            Public Key Algorithm: rsaEncryption
                Public-Key: (4096 bit)
                Modulus:
                    00:db:b9:a2:cc:46:fe:b8:8f:f1:8b:21:62:97:8a:
                    fc:c3:ba:5e:97:9e:88:f9:70:b1:11:d7:67:ac:f2:
                    19:43:02:48:54:42:19:e1:8d:0d:45:b2:50:c8:20:
                    10:54:bb:2a:5d:94:23:22:3e:89:1d:aa:75:da:cb:
                    49:88:92:49:ee:0e:a3:86:3b:ba:29:ff:4d:9c:64:
                    ec:b0:7c:52:10:51:40:9a:2e:c5:67:4c:c4:c8:c4:
                    3a:47:0b:a7:4f:61:b5:34:4b:30:63:23:aa:6f:19:
                    ce:7a:78:a1:36:38:f1:e3:0f:5b:ca:9c:d3:32:07:
                    38:1c:8e:2e:6d:29:f0:00:2d:47:23:a7:73:6a:e4:
                    1f:2e:94:28:58:3a:ae:ab:85:5b:59:e8:39:78:aa:
                    b1:af:d3:37:8b:c7:cd:18:11:5c:c2:84:9e:08:d7:
                    fd:64:21:9b:bb:4e:a2:b4:dd:83:18:a1:00:fb:0b:
                    6a:41:a4:52:de:bd:30:e4:b0:86:6f:ea:4d:50:af:
                    ea:75:4a:49:22:58:87:46:7c:55:ed:92:83:c3:d1:
                    a9:7d:50:77:2a:14:fc:f2:3d:2e:68:6a:b1:41:00:
                    ac:4b:3a:4a:a8:20:33:df:ae:70:58:80:b9:ba:b7:
                    0d:ee:b4:b8:86:32:c0:38:77:d2:80:23:67:38:2b:
                    64:e6:03:f4:f4:28:d4:b9:a3:3b:6e:13:ef:33:dc:
                    f6:7d:da:7f:f6:02:cf:ed:30:fd:fd:75:27:ac:24:
                    d8:1d:35:d7:c1:80:fb:2c:f8:35:a0:e7:56:4a:af:
                    bf:f5:3c:51:d1:7e:b8:89:6d:25:f7:be:64:93:58:
                    2f:1a:bb:43:40:77:ec:59:34:98:11:c4:7d:af:fd:
                    64:7d:b0:88:dc:2f:2f:6e:a3:b7:7d:ed:d3:2b:69:
                    0e:2d:66:8a:d1:bd:c5:5b:04:91:8d:f4:10:ab:4c:
                    93:c8:da:d9:62:8e:38:f4:08:bc:92:93:66:85:fc:
                    a2:05:77:14:53:08:1d:11:6e:f6:d9:d8:d1:1d:be:
                    a6:c0:fa:af:10:47:bc:06:43:48:0e:99:ca:77:21:
                    f3:61:8e:a7:af:80:98:c7:9c:a7:f8:7a:dc:5b:47:
                    b8:80:1c:47:51:83:04:af:1c:5c:71:c7:6c:22:5d:
                    ab:b8:04:ff:cc:76:58:88:1a:26:ac:59:cf:df:e6:
                    81:a8:98:0b:ef:7f:a2:0d:e1:8e:d6:f8:5a:37:75:
                    1e:cb:fe:f6:05:59:bf:79:6a:65:d3:e8:cd:61:71:
                    e8:eb:34:ba:66:58:3f:0f:17:f0:b2:83:d8:2a:80:
                    7d:70:5d:83:7b:21:b3:fc:2d:db:d0:cf:bd:9f:a6:
                    c8:df:6f
                Exponent: 65537 (0x10001)
        X509v3 extensions:
            X509v3 Subject Key Identifier: 
                B6:2C:7F:07:27:96:7D:5E:96:DC:FE:6E:7B:C6:8F:9F:56:59:BB:75
            X509v3 Authority Key Identifier: 
                keyid:7A:46:CB:D2:2F:30:A4:FF:67:29:13:39:3F:9C:02:BF:03:D0:72:82

            X509v3 Key Usage: 
                Digital Signature, Non Repudiation, Key Encipherment, Data Encipherment
            X509v3 Extended Key Usage: 
                TLS Web Server Authentication
            X509v3 Basic Constraints: 
                CA:FALSE
            X509v3 Subject Alternative Name: 
                URI:urn:S2OPC:localhost, DNS:localhost
    Signature Algorithm: sha256WithRSAEncryption
         cb:98:f8:69:48:48:60:36:1a:ce:b3:77:81:4f:f0:e5:ad:e9:
         15:b0:81:89:eb:55:40:5b:53:a2:24:b7:30:0f:f9:20:5e:09:
         9e:ec:58:22:70:82:d0:09:60:c7:26:4c:b1:91:e4:3d:3c:b2:
         01:f8:f6:53:a1:da:d8:53:ec:11:4c:93:83:03:28:77:63:03:
         3f:55:41:dc:ab:ea:f4:b8:50:f8:77:ee:9a:a7:9e:ea:e1:33:
         0d:fa:fb:3a:fe:a2:09:97:cc:38:a9:67:9d:7a:fb:98:39:c4:
         f0:86:18:d9:f6:1f:b6:30:c5:e2:05:61:54:74:1b:52:28:cf:
         45:ca:fb:d2:50:60:73:96:d6:a9:ec:73:8c:49:3f:d8:1e:a2:
         13:35:21:a9:cc:5b:bb:be:6c:4d:4b:d4:c4:da:09:5b:fd:24:
         7b:a4:13:b6:9f:2e:f9:b8:63:9a:c3:bf:b4:4c:15:c8:9f:83:
         65:0a:91:c3:4c:73:ad:c1:73:fb:98:f3:0b:b4:0c:df:09:4c:
         c8:af:7d:32:4e:71:a2:f3:11:50:74:8e:6b:03:15:33:aa:82:
         a2:d7:c7:25:8e:1f:cc:9f:26:d8:8f:49:a8:fd:b5:3c:76:fe:
         ae:65:65:6e:cc:c5:ac:67:26:c5:d6:75:4e:57:b4:ef:a9:97:
         69:f2:8e:04:66:07:a8:de:ad:7b:47:93:ee:d1:9b:cc:1b:13:
         2e:5d:f5:e9:00:4b:37:fa:1e:ac:c7:d1:9d:80:dc:92:48:f6:
         88:5d:9d:58:b0:ef:36:02:2d:80:28:b1:d8:44:a4:e2:c4:3a:
         3a:73:df:1f:56:7e:b8:f5:ad:2e:64:db:98:cc:ca:32:0c:48:
         31:68:dc:f9:6f:e9:76:90:52:91:26:ed:76:7a:07:12:c1:57:
         d2:90:4f:79:61:6d:53:4b:fb:fb:b4:42:4e:d4:14:71:ce:7c:
         bb:cf:9f:fd:a5:41:73:ae:a3:77:1a:35:4d:81:a0:f6:aa:a3:
         d8:08:75:8b:bd:3d:72:64:24:9e:fd:d2:28:d1:9f:fc:c5:93:
         81:aa:c1:4f:f5:71:87:36:cc:19:92:fa:aa:7f:07:e6:61:9a:
         05:1d:2b:5a:02:e5:8e:f5:28:55:84:45:c3:9c:ba:6a:85:75:
         92:5f:0c:cf:dd:ec:b1:6b:38:cd:82:4b:47:dd:55:b6:17:59:
         06:7b:3c:f5:55:0d:e1:ea:81:3a:7f:3d:32:1c:e2:78:fa:47:
         54:c2:cc:ad:53:fc:61:bf:1d:d5:f6:a5:60:c7:73:6d:46:9b:
         d4:5f:d2:89:fa:67:c8:e0:7e:5f:81:97:16:57:80:dc:6f:50:
         6d:1e:4f:b9:af:f2:de:af
-----BEGIN CERTIFICATE-----
MIIGEzCCA/ugAwIBAgIBXDANBgkqhkiG9w0BAQsFADCBkzELMAkGA1UEBhMCRlIx
DzANBgNVBAgMBkZyYW5jZTERMA8GA1UECgwIU3lzdGVyZWwxNjA0BgNVBAMMLVMy
T1BDIENlbnR1cnkgQ2VydGlmaWNhdGUgQXV0aG9yaXR5IGZvciBUZXN0czEoMCYG
CSqGSIb3DQEJARYZczJvcGMtc3VwcG9ydEBzeXN0ZXJlbC5mcjAgFw0xOTExMTkx
NjA2MzJaGA8yMTE5MTAyNjE2MDYzMlowZjELMAkGA1UEBhMCRlIxDzANBgNVBAgM
BkZyYW5jZTERMA8GA1UECgwIU3lzdGVyZWwxMzAxBgNVBAMMKlMyT1BDIENlbnR1
cnkgQ2VydGlmaWNhdGUgZm9yIFRlc3QgU2VydmVyczCCAiIwDQYJKoZIhvcNAQEB
BQADggIPADCCAgoCggIBANu5osxG/riP8YshYpeK/MO6XpeeiPlwsRHXZ6zyGUMC
SFRCGeGNDUWyUMggEFS7Kl2UIyI+iR2qddrLSYiSSe4Oo4Y7uin/TZxk7LB8UhBR
QJouxWdMxMjEOkcLp09htTRLMGMjqm8Zznp4oTY48eMPW8qc0zIHOByOLm0p8AAt
RyOnc2rkHy6UKFg6rquFW1noOXiqsa/TN4vHzRgRXMKEngjX/WQhm7tOorTdgxih
APsLakGkUt69MOSwhm/qTVCv6nVKSSJYh0Z8Ve2Sg8PRqX1QdyoU/PI9LmhqsUEA
rEs6SqggM9+ucFiAubq3De60uIYywDh30oAjZzgrZOYD9PQo1LmjO24T7zPc9n3a
f/YCz+0w/f11J6wk2B0118GA+yz4NaDnVkqvv/U8UdF+uIltJfe+ZJNYLxq7Q0B3
7Fk0mBHEfa/9ZH2wiNwvL26jt33t0ytpDi1mitG9xVsEkY30EKtMk8ja2WKOOPQI
vJKTZoX8ogV3FFMIHRFu9tnY0R2+psD6rxBHvAZDSA6Zynch82GOp6+AmMecp/h6
3FtHuIAcR1GDBK8cXHHHbCJdq7gE/8x2WIgaJqxZz9/mgaiYC+9/og3hjtb4Wjd1
Hsv+9gVZv3lqZdPozWFx6Os0umZYPw8X8LKD2CqAfXBdg3shs/wt29DPvZ+myN9v
AgMBAAGjgZswgZgwHQYDVR0OBBYEFLYsfwcnln1eltz+bnvGj59WWbt1MB8GA1Ud
IwQYMBaAFHpGy9IvMKT/ZykTOT+cAr8D0HKCMAsGA1UdDwQEAwIE8DATBgNVHSUE
DDAKBggrBgEFBQcDATAJBgNVHRMEAjAAMCkGA1UdEQQiMCCGE3VybjpTMk9QQzps
b2NhbGhvc3SCCWxvY2FsaG9zdDANBgkqhkiG9w0BAQsFAAOCAgEAy5j4aUhIYDYa
zrN3gU/w5a3pFbCBietVQFtToiS3MA/5IF4JnuxYInCC0AlgxyZMsZHkPTyyAfj2
U6Ha2FPsEUyTgwMod2MDP1VB3Kvq9LhQ+Hfumqee6uEzDfr7Ov6iCZfMOKlnnXr7
mDnE8IYY2fYftjDF4gVhVHQbUijPRcr70lBgc5bWqexzjEk/2B6iEzUhqcxbu75s
TUvUxNoJW/0ke6QTtp8u+bhjmsO/tEwVyJ+DZQqRw0xzrcFz+5jzC7QM3wlMyK99
Mk5xovMRUHSOawMVM6qCotfHJY4fzJ8m2I9JqP21PHb+rmVlbszFrGcmxdZ1Tle0
76mXafKOBGYHqN6te0eT7tGbzBsTLl316QBLN/oerMfRnYDckkj2iF2dWLDvNgIt
gCix2ESk4sQ6OnPfH1Z+uPWtLmTbmMzKMgxIMWjc+W/pdpBSkSbtdnoHEsFX0pBP
eWFtU0v7+7RCTtQUcc58u8+f/aVBc66jdxo1TYGg9qqj2Ah1i709cmQknv3SKNGf
/MWTgarBT/VxhzbMGZL6qn8H5mGaBR0rWgLljvUoVYRFw5y6aoV1kl8Mz93ssWs4
zYJLR91VthdZBns89VUN4eqBOn89MhziePpHVMLMrVP8Yb8d1falYMdzbUab1F/S
ifpnyOB+X4GXFleA3G9QbR5Pua/y3q8=
-----END CERTIFICATE-----
