Certificate:
    Data:
        Version: 3 (0x2)
        Serial Number: 2 (0x2)
        Signature Algorithm: sha256WithRSAEncryption
        Issuer: C=FR, ST=France, O=Systerel, CN=S2OPC Demo Certificate Authority for Tests/emailAddress=s2opc-support@systerel.fr, L=Aix-en-Provence
        Validity
            Not Before: Feb  2 10:14:14 2023 GMT
            Not After : Feb  1 10:14:14 2025 GMT
        Subject: C=FR, ST=France, L=Aix-en-Provence, O=Systerel, CN=S2OPC Demo Certificate for Server Tests
        Subject Public Key Info:
            Public Key Algorithm: rsaEncryption
                RSA Public-Key: (2048 bit)
                Modulus:
                    00:9b:b3:fc:e0:a5:80:5a:86:80:35:e5:b1:bb:e1:
                    61:af:33:be:45:96:c9:02:9f:e7:28:9e:3c:48:52:
                    c9:ad:a1:05:42:5f:96:bf:73:29:41:12:3e:6d:e1:
                    a7:35:cc:64:42:29:e8:95:e3:5b:a4:18:0c:37:ef:
                    e7:05:f1:37:6b:e6:50:c8:f4:c6:e1:26:ce:a0:f8:
                    0d:52:a0:33:cf:76:83:e1:27:a1:e6:ae:33:6b:b0:
                    78:9c:48:fe:82:bd:0b:c6:5a:c5:33:ea:7a:60:57:
                    39:c0:73:76:ce:f6:08:8c:f8:81:ee:52:eb:6a:e0:
                    4f:c6:dc:10:cd:70:59:a1:b8:55:15:31:72:1d:71:
                    48:6b:bb:8f:ba:8f:1d:28:98:cf:ca:99:1d:ff:31:
                    c7:1d:a7:f7:2b:08:30:3b:45:3f:ff:bb:17:11:17:
                    ec:ce:d9:33:09:23:3f:e1:17:2f:cb:61:84:b7:6d:
                    6d:05:56:71:ba:56:d2:d5:61:f0:8c:a2:82:8f:97:
                    c7:2c:10:89:9c:60:31:27:fc:98:72:5a:1b:81:84:
                    a1:a4:9b:84:33:24:00:d2:3d:92:f3:fd:5a:8b:75:
                    90:5b:3f:ac:bb:f7:2e:3b:80:cd:e8:6a:be:cf:50:
                    6e:5f:4e:75:1f:e2:fd:3d:16:9e:b0:2d:56:74:ef:
                    c6:af
                Exponent: 65537 (0x10001)
        X509v3 extensions:
            X509v3 Subject Key Identifier: 
                67:45:AA:CC:41:25:41:D8:E1:D5:50:21:FD:83:E5:77:A3:F4:E3:EA
            X509v3 Authority Key Identifier: 
                keyid:7A:46:CB:D2:2F:30:A4:FF:67:29:13:39:3F:9C:02:BF:03:D0:72:82

            X509v3 Key Usage: 
                Digital Signature, Non Repudiation, Key Encipherment, Data Encipherment
            X509v3 Extended Key Usage: 
                TLS Web Server Authentication
            X509v3 Basic Constraints: 
                CA:FALSE
            X509v3 Subject Alternative Name: 
                URI:urn:S2OPC:localhost, DNS:localhost
    Signature Algorithm: sha256WithRSAEncryption
         50:7a:96:1f:76:e5:80:a3:f0:e7:ba:b4:b9:5c:76:93:15:80:
         a5:e2:e6:26:6b:e1:85:3e:a7:ba:8a:fe:fa:3c:c8:cd:77:35:
         c8:72:56:39:c1:06:34:c1:d7:43:31:5f:9f:15:14:fa:43:d5:
         7b:82:96:05:cf:39:95:ad:88:87:e3:86:61:fd:f4:09:bd:ef:
         31:c4:d0:e6:49:f6:08:ef:54:ce:9c:e5:ef:c7:37:0a:75:6d:
         8f:42:31:9b:cc:65:6c:8f:42:c4:4d:96:33:53:60:dc:ee:be:
         42:a4:7e:78:f6:25:40:a3:ec:c1:09:fa:c6:71:95:c8:0b:38:
         af:01:b4:ad:d8:99:bf:ac:00:60:89:03:71:4a:aa:92:61:7f:
         7a:3b:f6:db:99:b4:09:0f:87:0a:c8:e5:bd:f3:e4:1c:45:10:
         1c:6f:30:9c:93:24:7a:fb:54:cb:e6:78:6c:9d:45:cc:73:ae:
         c9:9d:a4:b4:27:70:1b:0a:bf:1c:cd:d9:b6:ae:c4:e1:8f:26:
         02:09:8d:e0:82:84:84:56:62:1c:9e:4f:14:fa:92:49:18:7e:
         14:4d:29:d8:eb:a6:a9:06:ba:96:7a:b5:50:f0:42:52:98:f6:
         6b:37:fc:09:96:47:ae:76:13:d9:40:d0:83:96:99:c5:fd:9e:
         48:9f:67:fe:ff:0d:3f:1d:a8:a7:25:bf:b2:2e:da:85:5d:fa:
         86:06:61:a9:7f:1c:6b:10:63:0f:fa:05:75:98:6f:64:f3:0c:
         8f:fc:46:cf:87:e6:ca:89:a4:31:25:f6:0e:a5:17:4a:ae:cc:
         b1:3b:81:10:21:cd:ca:67:73:70:de:0b:c4:9c:f9:81:e5:ff:
         aa:7c:7f:b2:ac:63:b7:72:b4:9e:3f:a5:9f:cd:2f:c2:a5:0d:
         ef:f9:c8:aa:d5:20:ed:8a:de:a2:39:06:98:30:0d:bf:e5:5b:
         53:1b:7e:40:64:6f:bf:af:e6:10:6b:cc:ee:fc:fc:e9:bc:fb:
         a7:f4:0c:a7:1d:09:ae:35:c9:71:8e:06:3a:d5:4c:3c:47:e3:
         42:26:28:c1:3d:ae:5e:70:75:ed:d8:03:b9:cf:c5:58:ca:38:
         80:d9:f0:49:87:9c:58:5a:07:ae:98:02:72:23:11:d6:34:76:
         49:e7:7f:25:7a:8f:81:a0:88:99:2d:4b:6e:d8:71:44:5c:9c:
         de:5e:b6:71:4d:6f:80:85:63:17:1f:62:cd:fe:5d:8d:23:27:
         17:da:80:63:9e:3c:2c:fd:98:b8:66:9a:e1:8b:41:2c:8a:d9:
         50:78:8c:19:10:ab:96:7e:06:0e:94:ef:f6:2e:0b:48:e5:ef:
         bc:bc:11:56:40:f6:f5:05
-----BEGIN CERTIFICATE-----
MIIFPzCCAyegAwIBAgIBAjANBgkqhkiG9w0BAQsFADCBqjELMAkGA1UEBhMCRlIx
DzANBgNVBAgMBkZyYW5jZTERMA8GA1UECgwIU3lzdGVyZWwxMzAxBgNVBAMMKlMy
T1BDIERlbW8gQ2VydGlmaWNhdGUgQXV0aG9yaXR5IGZvciBUZXN0czEoMCYGCSqG
SIb3DQEJARYZczJvcGMtc3VwcG9ydEBzeXN0ZXJlbC5mcjEYMBYGA1UEBwwPQWl4
LWVuLVByb3ZlbmNlMB4XDTIzMDIwMjEwMTQxNFoXDTI1MDIwMTEwMTQxNFowfTEL
MAkGA1UEBhMCRlIxDzANBgNVBAgMBkZyYW5jZTEYMBYGA1UEBwwPQWl4LWVuLVBy
b3ZlbmNlMREwDwYDVQQKDAhTeXN0ZXJlbDEwMC4GA1UEAwwnUzJPUEMgRGVtbyBD
ZXJ0aWZpY2F0ZSBmb3IgU2VydmVyIFRlc3RzMIIBIjANBgkqhkiG9w0BAQEFAAOC
AQ8AMIIBCgKCAQEAm7P84KWAWoaANeWxu+FhrzO+RZbJAp/nKJ48SFLJraEFQl+W
v3MpQRI+beGnNcxkQinoleNbpBgMN+/nBfE3a+ZQyPTG4SbOoPgNUqAzz3aD4Seh
5q4za7B4nEj+gr0LxlrFM+p6YFc5wHN2zvYIjPiB7lLrauBPxtwQzXBZobhVFTFy
HXFIa7uPuo8dKJjPypkd/zHHHaf3KwgwO0U//7sXERfsztkzCSM/4Rcvy2GEt21t
BVZxulbS1WHwjKKCj5fHLBCJnGAxJ/yYclobgYShpJuEMyQA0j2S8/1ai3WQWz+s
u/cuO4DN6Gq+z1BuX051H+L9PRaesC1WdO/GrwIDAQABo4GbMIGYMB0GA1UdDgQW
BBRnRarMQSVB2OHVUCH9g+V3o/Tj6jAfBgNVHSMEGDAWgBR6RsvSLzCk/2cpEzk/
nAK/A9BygjALBgNVHQ8EBAMCBPAwEwYDVR0lBAwwCgYIKwYBBQUHAwEwCQYDVR0T
BAIwADApBgNVHREEIjAghhN1cm46UzJPUEM6bG9jYWxob3N0gglsb2NhbGhvc3Qw
DQYJKoZIhvcNAQELBQADggIBAFB6lh925YCj8Oe6tLlcdpMVgKXi5iZr4YU+p7qK
/vo8yM13NchyVjnBBjTB10MxX58VFPpD1XuClgXPOZWtiIfjhmH99Am97zHE0OZJ
9gjvVM6c5e/HNwp1bY9CMZvMZWyPQsRNljNTYNzuvkKkfnj2JUCj7MEJ+sZxlcgL
OK8BtK3Ymb+sAGCJA3FKqpJhf3o79tuZtAkPhwrI5b3z5BxFEBxvMJyTJHr7VMvm
eGydRcxzrsmdpLQncBsKvxzN2bauxOGPJgIJjeCChIRWYhyeTxT6kkkYfhRNKdjr
pqkGupZ6tVDwQlKY9ms3/AmWR652E9lA0IOWmcX9nkifZ/7/DT8dqKclv7Iu2oVd
+oYGYal/HGsQYw/6BXWYb2TzDI/8Rs+H5sqJpDEl9g6lF0quzLE7gRAhzcpnc3De
C8Sc+YHl/6p8f7KsY7dytJ4/pZ/NL8KlDe/5yKrVIO2K3qI5BpgwDb/lW1MbfkBk
b7+v5hBrzO78/Om8+6f0DKcdCa41yXGOBjrVTDxH40ImKME9rl5wde3YA7nPxVjK
OIDZ8EmHnFhaB66YAnIjEdY0dknnfyV6j4GgiJktS27YcURcnN5etnFNb4CFYxcf
Ys3+XY0jJxfagGOePCz9mLhmmuGLQSyK2VB4jBkQq5Z+Bg6U7/YuC0jl77y8EVZA
9vUF
-----END CERTIFICATE-----
