Certificate:
    Data:
        Version: 3 (0x2)
        Serial Number: 8 (0x8)
        Signature Algorithm: sha256WithRSAEncryption
        Issuer: C=FR, ST=France, O=Systerel, CN=S2OPC Century Certificate Authority for Tests/emailAddress=s2opc-support@systerel.fr
        Validity
            Not Before: Jan 22 15:03:03 2025 GMT
            Not After : Jan 20 15:03:03 2035 GMT
        Subject: C=FR, ST=France, L=Aix-en-Provence, O=Systerel, CN=S2OPC Demo Certificate for Server Tests
        Subject Public Key Info:
            Public Key Algorithm: rsaEncryption
                Public-Key: (2048 bit)
                Modulus:
                    00:9b:b3:fc:e0:a5:80:5a:86:80:35:e5:b1:bb:e1:
                    61:af:33:be:45:96:c9:02:9f:e7:28:9e:3c:48:52:
                    c9:ad:a1:05:42:5f:96:bf:73:29:41:12:3e:6d:e1:
                    a7:35:cc:64:42:29:e8:95:e3:5b:a4:18:0c:37:ef:
                    e7:05:f1:37:6b:e6:50:c8:f4:c6:e1:26:ce:a0:f8:
                    0d:52:a0:33:cf:76:83:e1:27:a1:e6:ae:33:6b:b0:
                    78:9c:48:fe:82:bd:0b:c6:5a:c5:33:ea:7a:60:57:
                    39:c0:73:76:ce:f6:08:8c:f8:81:ee:52:eb:6a:e0:
                    4f:c6:dc:10:cd:70:59:a1:b8:55:15:31:72:1d:71:
                    48:6b:bb:8f:ba:8f:1d:28:98:cf:ca:99:1d:ff:31:
                    c7:1d:a7:f7:2b:08:30:3b:45:3f:ff:bb:17:11:17:
                    ec:ce:d9:33:09:23:3f:e1:17:2f:cb:61:84:b7:6d:
                    6d:05:56:71:ba:56:d2:d5:61:f0:8c:a2:82:8f:97:
                    c7:2c:10:89:9c:60:31:27:fc:98:72:5a:1b:81:84:
                    a1:a4:9b:84:33:24:00:d2:3d:92:f3:fd:5a:8b:75:
                    90:5b:3f:ac:bb:f7:2e:3b:80:cd:e8:6a:be:cf:50:
                    6e:5f:4e:75:1f:e2:fd:3d:16:9e:b0:2d:56:74:ef:
                    c6:af
                Exponent: 65537 (0x10001)
        X509v3 extensions:
            X509v3 Subject Key Identifier: 
                67:45:AA:CC:41:25:41:D8:E1:D5:50:21:FD:83:E5:77:A3:F4:E3:EA
            X509v3 Authority Key Identifier: 
                7A:46:CB:D2:2F:30:A4:FF:67:29:13:39:3F:9C:02:BF:03:D0:72:82
            X509v3 Key Usage: 
                Digital Signature, Non Repudiation, Key Encipherment, Data Encipherment
            X509v3 Extended Key Usage: 
                TLS Web Server Authentication
            X509v3 Basic Constraints: 
                CA:FALSE
            X509v3 Subject Alternative Name: 
                URI:urn:S2OPC:localhost, DNS:localhost
    Signature Algorithm: sha256WithRSAEncryption
    Signature Value:
        52:7e:f1:ca:a3:37:76:e2:97:94:2d:a7:4d:5a:ca:1f:b6:55:
        8e:c0:b2:94:7c:dc:91:51:dc:08:e4:d0:85:94:21:a9:5f:4d:
        c5:d9:a1:44:46:b6:47:b7:8b:49:6f:40:4c:62:b9:6f:ac:03:
        9c:42:4e:b1:f9:3d:d5:ea:d0:1e:2e:f2:ab:14:75:d9:cc:0d:
        01:8e:5f:7b:00:cf:91:24:a8:83:93:0a:ed:2a:0e:9d:cf:17:
        20:34:0e:47:37:d1:59:c2:86:6e:75:96:1e:6d:6c:b7:be:63:
        ce:e4:b2:f6:71:6b:3e:8e:14:01:e6:ae:07:ef:be:62:a4:ff:
        ed:2a:89:3c:e6:e5:61:6f:d2:82:90:01:73:33:22:ef:c0:45:
        0a:7e:b8:21:69:1d:74:90:7c:93:eb:12:1f:ac:0f:8b:16:a9:
        82:27:4b:5c:d3:77:8a:a6:ff:1b:b8:fa:fd:1b:e1:e4:4e:54:
        72:3c:29:00:61:a1:2e:64:da:8c:20:b5:f3:e7:97:1d:89:36:
        95:35:cc:85:21:5d:f3:91:f7:36:08:54:0b:78:61:7c:b5:cc:
        18:82:64:2a:66:db:d8:0a:00:c1:17:b0:ad:db:ea:bb:3d:38:
        a4:79:7f:c5:34:0a:71:14:01:b3:74:cb:ac:fe:c0:de:be:a6:
        21:4f:40:49:5e:5d:09:97:f0:eb:4c:de:e0:92:28:c4:54:8a:
        67:28:04:8b:33:9a:fe:25:f5:30:a2:32:9e:f6:e8:a4:6a:af:
        25:d6:50:44:74:3a:c6:9a:c7:44:68:28:75:b6:de:ab:82:74:
        c4:4d:ef:33:73:4e:1d:84:a4:f0:aa:2b:14:38:3f:d0:74:5f:
        d9:06:c7:1f:3a:a5:74:21:ca:f2:2e:bb:c9:27:a6:e1:a6:f6:
        25:12:a9:70:2e:d9:f6:d5:65:da:1e:c0:fe:4a:42:53:e7:a0:
        d1:91:02:7b:74:58:76:52:c2:83:c3:db:5b:6b:5b:e4:55:1f:
        7c:1b:5e:ec:ec:ad:c3:a1:53:e5:57:39:17:ca:8b:94:54:5e:
        fc:08:13:fc:64:94:1d:05:ac:b8:dd:d1:34:58:6d:f3:70:47:
        53:12:44:8a:98:c9:59:21:4f:59:72:41:0d:6b:91:16:87:74:
        f9:0e:9f:29:07:39:b3:59:63:2c:9a:fd:39:60:ac:a9:f4:8a:
        b3:23:a7:a4:0a:e8:a4:a3:8b:34:6e:a2:96:4d:4f:f4:35:1a:
        ff:2a:ce:3c:71:cf:d2:b0:40:f7:77:24:61:fd:6e:61:53:ea:
        3b:2c:23:e1:8a:13:6b:96:8f:66:07:88:b0:58:8b:d3:e1:67:
        7f:07:01:c5:e0:82:87:45
-----BEGIN CERTIFICATE-----
MIIFKDCCAxCgAwIBAgIBCDANBgkqhkiG9w0BAQsFADCBkzELMAkGA1UEBhMCRlIx
DzANBgNVBAgMBkZyYW5jZTERMA8GA1UECgwIU3lzdGVyZWwxNjA0BgNVBAMMLVMy
T1BDIENlbnR1cnkgQ2VydGlmaWNhdGUgQXV0aG9yaXR5IGZvciBUZXN0czEoMCYG
CSqGSIb3DQEJARYZczJvcGMtc3VwcG9ydEBzeXN0ZXJlbC5mcjAeFw0yNTAxMjIx
NTAzMDNaFw0zNTAxMjAxNTAzMDNaMH0xCzAJBgNVBAYTAkZSMQ8wDQYDVQQIDAZG
cmFuY2UxGDAWBgNVBAcMD0FpeC1lbi1Qcm92ZW5jZTERMA8GA1UECgwIU3lzdGVy
ZWwxMDAuBgNVBAMMJ1MyT1BDIERlbW8gQ2VydGlmaWNhdGUgZm9yIFNlcnZlciBU
ZXN0czCCASIwDQYJKoZIhvcNAQEBBQADggEPADCCAQoCggEBAJuz/OClgFqGgDXl
sbvhYa8zvkWWyQKf5yiePEhSya2hBUJflr9zKUESPm3hpzXMZEIp6JXjW6QYDDfv
5wXxN2vmUMj0xuEmzqD4DVKgM892g+EnoeauM2uweJxI/oK9C8ZaxTPqemBXOcBz
ds72CIz4ge5S62rgT8bcEM1wWaG4VRUxch1xSGu7j7qPHSiYz8qZHf8xxx2n9ysI
MDtFP/+7FxEX7M7ZMwkjP+EXL8thhLdtbQVWcbpW0tVh8Iyigo+XxywQiZxgMSf8
mHJaG4GEoaSbhDMkANI9kvP9Wot1kFs/rLv3LjuAzehqvs9Qbl9OdR/i/T0WnrAt
VnTvxq8CAwEAAaOBmzCBmDAdBgNVHQ4EFgQUZ0WqzEElQdjh1VAh/YPld6P04+ow
HwYDVR0jBBgwFoAUekbL0i8wpP9nKRM5P5wCvwPQcoIwCwYDVR0PBAQDAgTwMBMG
A1UdJQQMMAoGCCsGAQUFBwMBMAkGA1UdEwQCMAAwKQYDVR0RBCIwIIYTdXJuOlMy
T1BDOmxvY2FsaG9zdIIJbG9jYWxob3N0MA0GCSqGSIb3DQEBCwUAA4ICAQBSfvHK
ozd24peULadNWsoftlWOwLKUfNyRUdwI5NCFlCGpX03F2aFERrZHt4tJb0BMYrlv
rAOcQk6x+T3V6tAeLvKrFHXZzA0Bjl97AM+RJKiDkwrtKg6dzxcgNA5HN9FZwoZu
dZYebWy3vmPO5LL2cWs+jhQB5q4H775ipP/tKok85uVhb9KCkAFzMyLvwEUKfrgh
aR10kHyT6xIfrA+LFqmCJ0tc03eKpv8buPr9G+HkTlRyPCkAYaEuZNqMILXz55cd
iTaVNcyFIV3zkfc2CFQLeGF8tcwYgmQqZtvYCgDBF7Ct2+q7PTikeX/FNApxFAGz
dMus/sDevqYhT0BJXl0Jl/DrTN7gkijEVIpnKASLM5r+JfUwojKe9uikaq8l1lBE
dDrGmsdEaCh1tt6rgnTETe8zc04dhKTwqisUOD/QdF/ZBscfOqV0IcryLrvJJ6bh
pvYlEqlwLtn21WXaHsD+SkJT56DRkQJ7dFh2UsKDw9tba1vkVR98G17s7K3DoVPl
VzkXyouUVF78CBP8ZJQdBay43dE0WG3zcEdTEkSKmMlZIU9ZckENa5EWh3T5Dp8p
BzmzWWMsmv05YKyp9IqzI6ekCuiko4s0bqKWTU/0NRr/Ks48cc/SsED3dyRh/W5h
U+o7LCPhihNrlo9mB4iwWIvT4Wd/BwHF4IKHRQ==
-----END CERTIFICATE-----
