Certificate:
    Data:
        Version: 3 (0x2)
        Serial Number: 9 (0x9)
        Signature Algorithm: sha256WithRSAEncryption
        Issuer: C=FR, ST=France, O=Systerel, CN=S2OPC Century Certificate Authority for Tests/emailAddress=s2opc-support@systerel.fr
        Validity
            Not Before: Jan 22 15:03:05 2025 GMT
            Not After : Jan 20 15:03:05 2035 GMT
        Subject: C=FR, ST=France, L=Aix-en-Provence, O=Systerel, CN=S2OPC Demo Certificate for Server Tests
        Subject Public Key Info:
            Public Key Algorithm: rsaEncryption
                Public-Key: (4096 bit)
                Modulus:
                    00:db:b9:a2:cc:46:fe:b8:8f:f1:8b:21:62:97:8a:
                    fc:c3:ba:5e:97:9e:88:f9:70:b1:11:d7:67:ac:f2:
                    19:43:02:48:54:42:19:e1:8d:0d:45:b2:50:c8:20:
                    10:54:bb:2a:5d:94:23:22:3e:89:1d:aa:75:da:cb:
                    49:88:92:49:ee:0e:a3:86:3b:ba:29:ff:4d:9c:64:
                    ec:b0:7c:52:10:51:40:9a:2e:c5:67:4c:c4:c8:c4:
                    3a:47:0b:a7:4f:61:b5:34:4b:30:63:23:aa:6f:19:
                    ce:7a:78:a1:36:38:f1:e3:0f:5b:ca:9c:d3:32:07:
                    38:1c:8e:2e:6d:29:f0:00:2d:47:23:a7:73:6a:e4:
                    1f:2e:94:28:58:3a:ae:ab:85:5b:59:e8:39:78:aa:
                    b1:af:d3:37:8b:c7:cd:18:11:5c:c2:84:9e:08:d7:
                    fd:64:21:9b:bb:4e:a2:b4:dd:83:18:a1:00:fb:0b:
                    6a:41:a4:52:de:bd:30:e4:b0:86:6f:ea:4d:50:af:
                    ea:75:4a:49:22:58:87:46:7c:55:ed:92:83:c3:d1:
                    a9:7d:50:77:2a:14:fc:f2:3d:2e:68:6a:b1:41:00:
                    ac:4b:3a:4a:a8:20:33:df:ae:70:58:80:b9:ba:b7:
                    0d:ee:b4:b8:86:32:c0:38:77:d2:80:23:67:38:2b:
                    64:e6:03:f4:f4:28:d4:b9:a3:3b:6e:13:ef:33:dc:
                    f6:7d:da:7f:f6:02:cf:ed:30:fd:fd:75:27:ac:24:
                    d8:1d:35:d7:c1:80:fb:2c:f8:35:a0:e7:56:4a:af:
                    bf:f5:3c:51:d1:7e:b8:89:6d:25:f7:be:64:93:58:
                    2f:1a:bb:43:40:77:ec:59:34:98:11:c4:7d:af:fd:
                    64:7d:b0:88:dc:2f:2f:6e:a3:b7:7d:ed:d3:2b:69:
                    0e:2d:66:8a:d1:bd:c5:5b:04:91:8d:f4:10:ab:4c:
                    93:c8:da:d9:62:8e:38:f4:08:bc:92:93:66:85:fc:
                    a2:05:77:14:53:08:1d:11:6e:f6:d9:d8:d1:1d:be:
                    a6:c0:fa:af:10:47:bc:06:43:48:0e:99:ca:77:21:
                    f3:61:8e:a7:af:80:98:c7:9c:a7:f8:7a:dc:5b:47:
                    b8:80:1c:47:51:83:04:af:1c:5c:71:c7:6c:22:5d:
                    ab:b8:04:ff:cc:76:58:88:1a:26:ac:59:cf:df:e6:
                    81:a8:98:0b:ef:7f:a2:0d:e1:8e:d6:f8:5a:37:75:
                    1e:cb:fe:f6:05:59:bf:79:6a:65:d3:e8:cd:61:71:
                    e8:eb:34:ba:66:58:3f:0f:17:f0:b2:83:d8:2a:80:
                    7d:70:5d:83:7b:21:b3:fc:2d:db:d0:cf:bd:9f:a6:
                    c8:df:6f
                Exponent: 65537 (0x10001)
        X509v3 extensions:
            X509v3 Subject Key Identifier: 
                B6:2C:7F:07:27:96:7D:5E:96:DC:FE:6E:7B:C6:8F:9F:56:59:BB:75
            X509v3 Authority Key Identifier: 
                7A:46:CB:D2:2F:30:A4:FF:67:29:13:39:3F:9C:02:BF:03:D0:72:82
            X509v3 Key Usage: 
                Digital Signature, Non Repudiation, Key Encipherment, Data Encipherment
            X509v3 Extended Key Usage: 
                TLS Web Server Authentication
            X509v3 Basic Constraints: 
                CA:FALSE
            X509v3 Subject Alternative Name: 
                URI:urn:S2OPC:localhost, DNS:localhost
    Signature Algorithm: sha256WithRSAEncryption
    Signature Value:
        21:70:c5:59:74:a9:6f:9a:95:ef:f6:d5:e1:87:19:af:67:37:
        14:9c:de:47:79:45:fd:2c:dd:fe:d2:7e:a5:ff:2e:aa:46:71:
        13:37:b0:d7:b3:f4:9d:3b:17:3e:12:b2:28:81:10:29:f2:37:
        ed:c2:45:d6:57:08:49:d0:da:49:12:5d:08:79:78:af:17:35:
        ca:f6:88:4c:38:f8:2f:0b:5a:31:41:2b:f6:42:62:2b:25:b9:
        88:0b:94:fe:64:e4:70:f0:84:2f:7a:25:9b:3c:7a:61:60:64:
        52:b8:4a:17:04:f0:db:8b:c8:8b:db:a9:34:c7:dd:5f:4c:83:
        2b:03:c8:44:c2:6f:9c:c0:c9:d0:68:cd:80:ba:53:f9:d7:eb:
        46:71:b9:6e:25:50:d7:74:a1:85:98:12:92:45:e1:6d:e8:be:
        91:ae:c1:38:25:2a:b5:1d:0c:bb:2e:80:9b:93:d7:d2:0e:34:
        b9:d1:8b:41:ee:e3:80:f5:48:b7:50:df:30:0b:8e:1e:4a:18:
        00:41:c4:35:e5:ee:b0:dc:93:fd:12:a5:1d:fd:1a:d5:6d:62:
        c7:ad:d1:90:75:f9:e5:fd:58:11:79:b9:96:dc:78:58:7d:47:
        ff:8d:cf:7a:28:d4:2a:37:cf:63:34:36:a3:11:cf:26:c5:f7:
        d6:95:ff:85:42:76:a3:53:0c:a9:20:df:30:82:f2:50:fa:b4:
        79:5e:9a:64:81:a6:9f:85:ce:c9:f8:b7:f8:ee:35:6a:83:de:
        27:a7:79:b3:c9:ef:91:77:64:16:04:c8:29:39:6c:8e:e0:de:
        79:31:2d:93:d4:7f:52:1c:e5:94:34:84:0e:e4:c5:19:43:2d:
        0e:07:d8:cb:77:7e:19:a0:3b:76:94:31:06:85:1f:36:5e:ee:
        04:ec:db:3e:35:d8:f3:0f:66:79:6a:0e:da:0c:01:05:6b:e0:
        99:82:57:88:11:18:b0:e1:61:b1:fa:6d:81:ff:78:d1:1f:b9:
        ca:be:3a:24:55:2a:e4:52:65:53:cc:cb:d6:78:a8:10:ab:d0:
        03:bb:03:ab:cc:87:f4:ce:2e:95:ba:1b:18:34:ba:b5:58:0a:
        57:8d:92:ef:49:c3:a6:11:7d:f8:ac:06:31:a0:4b:f1:ca:83:
        61:01:dc:3e:08:b8:e0:30:d3:90:e6:52:d7:a0:1f:ab:4d:99:
        bd:c4:fe:b1:4e:f7:34:34:8f:ab:97:89:e5:45:29:e4:40:9a:
        17:a0:82:10:f1:e7:a9:4c:c5:27:09:59:9a:29:33:43:36:78:
        83:04:70:b4:30:12:a8:14:03:43:56:62:b2:27:66:8f:c0:ea:
        be:02:48:8f:39:73:e3:d5
-----BEGIN CERTIFICATE-----
MIIGKDCCBBCgAwIBAgIBCTANBgkqhkiG9w0BAQsFADCBkzELMAkGA1UEBhMCRlIx
DzANBgNVBAgMBkZyYW5jZTERMA8GA1UECgwIU3lzdGVyZWwxNjA0BgNVBAMMLVMy
T1BDIENlbnR1cnkgQ2VydGlmaWNhdGUgQXV0aG9yaXR5IGZvciBUZXN0czEoMCYG
CSqGSIb3DQEJARYZczJvcGMtc3VwcG9ydEBzeXN0ZXJlbC5mcjAeFw0yNTAxMjIx
NTAzMDVaFw0zNTAxMjAxNTAzMDVaMH0xCzAJBgNVBAYTAkZSMQ8wDQYDVQQIDAZG
cmFuY2UxGDAWBgNVBAcMD0FpeC1lbi1Qcm92ZW5jZTERMA8GA1UECgwIU3lzdGVy
ZWwxMDAuBgNVBAMMJ1MyT1BDIERlbW8gQ2VydGlmaWNhdGUgZm9yIFNlcnZlciBU
ZXN0czCCAiIwDQYJKoZIhvcNAQEBBQADggIPADCCAgoCggIBANu5osxG/riP8Ysh
YpeK/MO6XpeeiPlwsRHXZ6zyGUMCSFRCGeGNDUWyUMggEFS7Kl2UIyI+iR2qddrL
SYiSSe4Oo4Y7uin/TZxk7LB8UhBRQJouxWdMxMjEOkcLp09htTRLMGMjqm8Zznp4
oTY48eMPW8qc0zIHOByOLm0p8AAtRyOnc2rkHy6UKFg6rquFW1noOXiqsa/TN4vH
zRgRXMKEngjX/WQhm7tOorTdgxihAPsLakGkUt69MOSwhm/qTVCv6nVKSSJYh0Z8
Ve2Sg8PRqX1QdyoU/PI9LmhqsUEArEs6SqggM9+ucFiAubq3De60uIYywDh30oAj
ZzgrZOYD9PQo1LmjO24T7zPc9n3af/YCz+0w/f11J6wk2B0118GA+yz4NaDnVkqv
v/U8UdF+uIltJfe+ZJNYLxq7Q0B37Fk0mBHEfa/9ZH2wiNwvL26jt33t0ytpDi1m
itG9xVsEkY30EKtMk8ja2WKOOPQIvJKTZoX8ogV3FFMIHRFu9tnY0R2+psD6rxBH
vAZDSA6Zynch82GOp6+AmMecp/h63FtHuIAcR1GDBK8cXHHHbCJdq7gE/8x2WIga
JqxZz9/mgaiYC+9/og3hjtb4Wjd1Hsv+9gVZv3lqZdPozWFx6Os0umZYPw8X8LKD
2CqAfXBdg3shs/wt29DPvZ+myN9vAgMBAAGjgZswgZgwHQYDVR0OBBYEFLYsfwcn
ln1eltz+bnvGj59WWbt1MB8GA1UdIwQYMBaAFHpGy9IvMKT/ZykTOT+cAr8D0HKC
MAsGA1UdDwQEAwIE8DATBgNVHSUEDDAKBggrBgEFBQcDATAJBgNVHRMEAjAAMCkG
A1UdEQQiMCCGE3VybjpTMk9QQzpsb2NhbGhvc3SCCWxvY2FsaG9zdDANBgkqhkiG
9w0BAQsFAAOCAgEAIXDFWXSpb5qV7/bV4YcZr2c3FJzeR3lF/Szd/tJ+pf8uqkZx
Ezew17P0nTsXPhKyKIEQKfI37cJF1lcISdDaSRJdCHl4rxc1yvaITDj4LwtaMUEr
9kJiKyW5iAuU/mTkcPCEL3olmzx6YWBkUrhKFwTw24vIi9upNMfdX0yDKwPIRMJv
nMDJ0GjNgLpT+dfrRnG5biVQ13ShhZgSkkXhbei+ka7BOCUqtR0Muy6Am5PX0g40
udGLQe7jgPVIt1DfMAuOHkoYAEHENeXusNyT/RKlHf0a1W1ix63RkHX55f1YEXm5
ltx4WH1H/43PeijUKjfPYzQ2oxHPJsX31pX/hUJ2o1MMqSDfMILyUPq0eV6aZIGm
n4XOyfi3+O41aoPeJ6d5s8nvkXdkFgTIKTlsjuDeeTEtk9R/UhzllDSEDuTFGUMt
DgfYy3d+GaA7dpQxBoUfNl7uBOzbPjXY8w9meWoO2gwBBWvgmYJXiBEYsOFhsfpt
gf940R+5yr46JFUq5FJlU8zL1nioEKvQA7sDq8yH9M4ulbobGDS6tVgKV42S70nD
phF9+KwGMaBL8cqDYQHcPgi44DDTkOZS16Afq02ZvcT+sU73NDSPq5eJ5UUp5ECa
F6CCEPHnqUzFJwlZmikzQzZ4gwRwtDASqBQDQ1Zisidmj8DqvgJIjzlz49U=
-----END CERTIFICATE-----
