Certificate:
    Data:
        Version: 3 (0x2)
        Serial Number: 3 (0x3)
        Signature Algorithm: sha256WithRSAEncryption
        Issuer: C=FR, ST=France, O=Systerel, CN=S2OPC Demo Certificate Authority for Tests/emailAddress=s2opc-support@systerel.fr, L=Aix-en-Provence
        Validity
            Not Before: Feb  2 10:14:18 2023 GMT
            Not After : Feb  1 10:14:18 2025 GMT
        Subject: C=FR, ST=France, L=Aix-en-Provence, O=Systerel, CN=S2OPC Demo Certificate for Server Tests
        Subject Public Key Info:
            Public Key Algorithm: rsaEncryption
                RSA Public-Key: (4096 bit)
                Modulus:
                    00:db:b9:a2:cc:46:fe:b8:8f:f1:8b:21:62:97:8a:
                    fc:c3:ba:5e:97:9e:88:f9:70:b1:11:d7:67:ac:f2:
                    19:43:02:48:54:42:19:e1:8d:0d:45:b2:50:c8:20:
                    10:54:bb:2a:5d:94:23:22:3e:89:1d:aa:75:da:cb:
                    49:88:92:49:ee:0e:a3:86:3b:ba:29:ff:4d:9c:64:
                    ec:b0:7c:52:10:51:40:9a:2e:c5:67:4c:c4:c8:c4:
                    3a:47:0b:a7:4f:61:b5:34:4b:30:63:23:aa:6f:19:
                    ce:7a:78:a1:36:38:f1:e3:0f:5b:ca:9c:d3:32:07:
                    38:1c:8e:2e:6d:29:f0:00:2d:47:23:a7:73:6a:e4:
                    1f:2e:94:28:58:3a:ae:ab:85:5b:59:e8:39:78:aa:
                    b1:af:d3:37:8b:c7:cd:18:11:5c:c2:84:9e:08:d7:
                    fd:64:21:9b:bb:4e:a2:b4:dd:83:18:a1:00:fb:0b:
                    6a:41:a4:52:de:bd:30:e4:b0:86:6f:ea:4d:50:af:
                    ea:75:4a:49:22:58:87:46:7c:55:ed:92:83:c3:d1:
                    a9:7d:50:77:2a:14:fc:f2:3d:2e:68:6a:b1:41:00:
                    ac:4b:3a:4a:a8:20:33:df:ae:70:58:80:b9:ba:b7:
                    0d:ee:b4:b8:86:32:c0:38:77:d2:80:23:67:38:2b:
                    64:e6:03:f4:f4:28:d4:b9:a3:3b:6e:13:ef:33:dc:
                    f6:7d:da:7f:f6:02:cf:ed:30:fd:fd:75:27:ac:24:
                    d8:1d:35:d7:c1:80:fb:2c:f8:35:a0:e7:56:4a:af:
                    bf:f5:3c:51:d1:7e:b8:89:6d:25:f7:be:64:93:58:
                    2f:1a:bb:43:40:77:ec:59:34:98:11:c4:7d:af:fd:
                    64:7d:b0:88:dc:2f:2f:6e:a3:b7:7d:ed:d3:2b:69:
                    0e:2d:66:8a:d1:bd:c5:5b:04:91:8d:f4:10:ab:4c:
                    93:c8:da:d9:62:8e:38:f4:08:bc:92:93:66:85:fc:
                    a2:05:77:14:53:08:1d:11:6e:f6:d9:d8:d1:1d:be:
                    a6:c0:fa:af:10:47:bc:06:43:48:0e:99:ca:77:21:
                    f3:61:8e:a7:af:80:98:c7:9c:a7:f8:7a:dc:5b:47:
                    b8:80:1c:47:51:83:04:af:1c:5c:71:c7:6c:22:5d:
                    ab:b8:04:ff:cc:76:58:88:1a:26:ac:59:cf:df:e6:
                    81:a8:98:0b:ef:7f:a2:0d:e1:8e:d6:f8:5a:37:75:
                    1e:cb:fe:f6:05:59:bf:79:6a:65:d3:e8:cd:61:71:
                    e8:eb:34:ba:66:58:3f:0f:17:f0:b2:83:d8:2a:80:
                    7d:70:5d:83:7b:21:b3:fc:2d:db:d0:cf:bd:9f:a6:
                    c8:df:6f
                Exponent: 65537 (0x10001)
        X509v3 extensions:
            X509v3 Subject Key Identifier: 
                B6:2C:7F:07:27:96:7D:5E:96:DC:FE:6E:7B:C6:8F:9F:56:59:BB:75
            X509v3 Authority Key Identifier: 
                keyid:7A:46:CB:D2:2F:30:A4:FF:67:29:13:39:3F:9C:02:BF:03:D0:72:82

            X509v3 Key Usage: 
                Digital Signature, Non Repudiation, Key Encipherment, Data Encipherment
            X509v3 Extended Key Usage: 
                TLS Web Server Authentication
            X509v3 Basic Constraints: 
                CA:FALSE
            X509v3 Subject Alternative Name: 
                URI:urn:S2OPC:localhost, DNS:localhost
    Signature Algorithm: sha256WithRSAEncryption
         8b:3b:c1:2d:c1:f0:69:77:78:ea:8a:4f:6d:e2:ed:84:5d:17:
         73:0c:41:44:1c:0a:ed:4a:e9:e2:42:c4:13:1c:a6:3d:e7:13:
         5f:dd:94:95:da:9a:84:87:4b:15:3c:6a:ea:2e:85:5e:44:19:
         2e:ba:a3:ea:51:da:2b:d5:a5:dc:68:90:4e:d3:b8:74:ec:0c:
         e6:4e:05:1d:38:fe:5d:ed:98:68:e8:32:8c:67:59:67:33:b5:
         66:48:aa:5f:5b:02:cf:4b:3e:81:25:67:be:5b:f7:22:69:cf:
         ae:00:dd:90:2a:b5:4a:82:d9:1c:f8:25:ab:50:44:3b:8e:63:
         36:18:61:19:a1:9f:75:73:1a:8d:95:ea:b8:d0:e0:91:53:ca:
         c8:bc:f3:05:bf:c5:93:89:a3:89:d6:c2:28:7b:9a:48:52:12:
         93:7c:f8:6f:c8:e5:6e:4b:ec:59:c3:21:f9:14:ee:54:a8:b8:
         c0:22:10:74:28:b2:f3:e8:09:50:1e:a6:4f:93:68:06:ed:82:
         24:9d:b2:01:28:65:57:52:eb:0b:6c:76:5d:09:82:2e:7f:25:
         90:f4:9d:4b:1c:97:a5:b1:fa:5b:b7:5b:86:c1:90:8c:75:76:
         de:00:7d:85:66:3d:9f:13:e6:89:3b:fe:32:0d:b7:8e:6e:bb:
         13:a8:6a:56:aa:e4:f4:b8:09:fa:19:bb:66:62:fb:ec:e4:4c:
         58:b0:81:56:ab:13:fd:92:0e:fc:a3:cb:97:62:47:37:c2:8b:
         ce:e9:e3:1a:2d:1c:df:0c:87:12:c2:aa:25:12:e4:7e:16:a2:
         2d:51:ac:3e:6b:93:58:f4:c0:40:99:6f:4a:06:cb:07:d2:33:
         2a:03:b2:f7:19:5b:d9:4c:f2:91:3e:e7:d0:de:11:15:44:be:
         1a:f2:55:c1:66:37:f3:e6:26:6b:f0:e4:a2:42:39:5e:84:4d:
         fa:b4:2c:22:8a:0b:f7:72:3d:88:b4:cb:19:36:17:9d:88:06:
         96:1f:a0:50:41:cb:02:9a:9e:77:70:52:7b:b4:58:78:e6:83:
         ba:de:51:fe:96:df:93:4e:19:54:4a:dc:45:44:32:f0:07:1f:
         d7:72:de:cd:4c:bc:68:72:5f:a6:f1:fa:7d:bd:58:67:53:eb:
         4a:81:90:92:b4:c8:eb:6d:52:54:7b:40:bc:2e:24:0e:45:ef:
         6c:76:a7:ef:dc:ae:c8:d0:ec:85:56:48:5d:1d:72:22:13:62:
         0f:f6:dc:98:db:9f:e9:6b:42:26:27:44:dc:2a:58:a1:4d:72:
         a6:ed:75:46:11:19:8a:64:c2:d4:08:e5:b6:32:5c:5d:86:dc:
         5d:96:db:e2:32:3c:70:6e
-----BEGIN CERTIFICATE-----
MIIGPzCCBCegAwIBAgIBAzANBgkqhkiG9w0BAQsFADCBqjELMAkGA1UEBhMCRlIx
DzANBgNVBAgMBkZyYW5jZTERMA8GA1UECgwIU3lzdGVyZWwxMzAxBgNVBAMMKlMy
T1BDIERlbW8gQ2VydGlmaWNhdGUgQXV0aG9yaXR5IGZvciBUZXN0czEoMCYGCSqG
SIb3DQEJARYZczJvcGMtc3VwcG9ydEBzeXN0ZXJlbC5mcjEYMBYGA1UEBwwPQWl4
LWVuLVByb3ZlbmNlMB4XDTIzMDIwMjEwMTQxOFoXDTI1MDIwMTEwMTQxOFowfTEL
MAkGA1UEBhMCRlIxDzANBgNVBAgMBkZyYW5jZTEYMBYGA1UEBwwPQWl4LWVuLVBy
b3ZlbmNlMREwDwYDVQQKDAhTeXN0ZXJlbDEwMC4GA1UEAwwnUzJPUEMgRGVtbyBD
ZXJ0aWZpY2F0ZSBmb3IgU2VydmVyIFRlc3RzMIICIjANBgkqhkiG9w0BAQEFAAOC
Ag8AMIICCgKCAgEA27mizEb+uI/xiyFil4r8w7pel56I+XCxEddnrPIZQwJIVEIZ
4Y0NRbJQyCAQVLsqXZQjIj6JHap12stJiJJJ7g6jhju6Kf9NnGTssHxSEFFAmi7F
Z0zEyMQ6RwunT2G1NEswYyOqbxnOenihNjjx4w9bypzTMgc4HI4ubSnwAC1HI6dz
auQfLpQoWDquq4VbWeg5eKqxr9M3i8fNGBFcwoSeCNf9ZCGbu06itN2DGKEA+wtq
QaRS3r0w5LCGb+pNUK/qdUpJIliHRnxV7ZKDw9GpfVB3KhT88j0uaGqxQQCsSzpK
qCAz365wWIC5urcN7rS4hjLAOHfSgCNnOCtk5gP09CjUuaM7bhPvM9z2fdp/9gLP
7TD9/XUnrCTYHTXXwYD7LPg1oOdWSq+/9TxR0X64iW0l975kk1gvGrtDQHfsWTSY
EcR9r/1kfbCI3C8vbqO3fe3TK2kOLWaK0b3FWwSRjfQQq0yTyNrZYo449Ai8kpNm
hfyiBXcUUwgdEW722djRHb6mwPqvEEe8BkNIDpnKdyHzYY6nr4CYx5yn+HrcW0e4
gBxHUYMErxxcccdsIl2ruAT/zHZYiBomrFnP3+aBqJgL73+iDeGO1vhaN3Uey/72
BVm/eWpl0+jNYXHo6zS6Zlg/DxfwsoPYKoB9cF2DeyGz/C3b0M+9n6bI328CAwEA
AaOBmzCBmDAdBgNVHQ4EFgQUtix/ByeWfV6W3P5ue8aPn1ZZu3UwHwYDVR0jBBgw
FoAUekbL0i8wpP9nKRM5P5wCvwPQcoIwCwYDVR0PBAQDAgTwMBMGA1UdJQQMMAoG
CCsGAQUFBwMBMAkGA1UdEwQCMAAwKQYDVR0RBCIwIIYTdXJuOlMyT1BDOmxvY2Fs
aG9zdIIJbG9jYWxob3N0MA0GCSqGSIb3DQEBCwUAA4ICAQCLO8EtwfBpd3jqik9t
4u2EXRdzDEFEHArtSuniQsQTHKY95xNf3ZSV2pqEh0sVPGrqLoVeRBkuuqPqUdor
1aXcaJBO07h07AzmTgUdOP5d7Zho6DKMZ1lnM7VmSKpfWwLPSz6BJWe+W/ciac+u
AN2QKrVKgtkc+CWrUEQ7jmM2GGEZoZ91cxqNleq40OCRU8rIvPMFv8WTiaOJ1sIo
e5pIUhKTfPhvyOVuS+xZwyH5FO5UqLjAIhB0KLLz6AlQHqZPk2gG7YIknbIBKGVX
UusLbHZdCYIufyWQ9J1LHJelsfpbt1uGwZCMdXbeAH2FZj2fE+aJO/4yDbeObrsT
qGpWquT0uAn6GbtmYvvs5ExYsIFWqxP9kg78o8uXYkc3wovO6eMaLRzfDIcSwqol
EuR+FqItUaw+a5NY9MBAmW9KBssH0jMqA7L3GVvZTPKRPufQ3hEVRL4a8lXBZjfz
5iZr8OSiQjlehE36tCwiigv3cj2ItMsZNhediAaWH6BQQcsCmp53cFJ7tFh45oO6
3lH+lt+TThlUStxFRDLwBx/Xct7NTLxocl+m8fp9vVhnU+tKgZCStMjrbVJUe0C8
LiQORe9sdqfv3K7I0OyFVkhdHXIiE2IP9tyY25/pa0ImJ0TcKlihTXKm7XVGERmK
ZMLUCOW2MlxdhtxdltviMjxwbg==
-----END CERTIFICATE-----
