Certificate:
    Data:
        Version: 3 (0x2)
        Serial Number: 1 (0x1)
        Signature Algorithm: sha256WithRSAEncryption
        Issuer: C=FR, ST=France, O=Systerel, CN=S2OPC Demo Certificate Authority for X509IdentityToken Tests/emailAddress=s2opc-support@systerel.fr, L=Aix-en-Provence
        Validity
            Not Before: Jan 22 15:35:28 2025 GMT
            Not After : Jan 20 15:35:28 2035 GMT
        Subject: C=FR, ST=France, L=Aix-en-Provence, O=Systerel, CN=S2OPC Demo Certificate for X509IdentityToken Tests
        Subject Public Key Info:
            Public Key Algorithm: rsaEncryption
                Public-Key: (4096 bit)
                Modulus:
                    00:b9:89:de:1b:e8:36:a7:2e:62:21:a6:71:aa:90:
                    1c:04:08:e5:c4:34:0c:c2:43:46:08:3b:dd:1b:74:
                    ac:31:5f:b2:2c:ad:0d:a3:cc:ba:8e:33:a0:5c:27:
                    b2:aa:f6:c3:79:26:19:95:f5:f7:96:22:94:fb:07:
                    b7:dc:71:86:0b:ef:77:15:11:55:06:b8:8c:a0:a1:
                    2e:9f:6e:f1:25:68:b8:74:d7:d7:73:97:14:78:2b:
                    b3:d6:14:74:de:79:ce:d6:ac:78:77:ba:63:81:9e:
                    24:63:20:da:ee:5e:ca:a2:0c:49:18:11:3c:02:e2:
                    51:2b:67:df:aa:d2:2d:41:6a:42:f7:02:df:6e:5f:
                    ad:c9:cf:2a:05:86:e5:4c:a9:02:38:02:6f:a6:f3:
                    1e:58:fe:e7:0f:4d:f4:86:96:c3:c7:65:34:c3:88:
                    54:35:6e:21:f4:20:ca:37:db:5a:cc:88:4b:8a:fd:
                    90:18:8c:d0:b1:a0:e2:18:06:94:ca:fe:02:33:84:
                    f2:8a:f5:6c:f1:b7:11:a3:8e:f4:95:0c:88:5a:80:
                    88:cf:7a:5d:13:49:6e:ef:ea:1c:4a:f8:53:b6:fb:
                    0e:09:61:6b:a2:d4:11:44:7e:ad:80:6a:86:57:de:
                    28:b4:e5:98:b0:b5:be:e7:fd:fc:fd:68:1e:33:e3:
                    48:89:8a:5b:f0:04:f7:ad:01:b8:d4:a3:89:81:33:
                    f1:7b:ca:cc:ff:3d:10:94:93:ed:f5:04:23:df:a7:
                    25:ab:2d:3f:46:2d:d6:91:d5:56:60:20:de:10:f4:
                    f3:56:f5:30:9f:31:0e:26:fc:66:84:a6:61:83:52:
                    25:d8:51:95:53:42:67:9a:09:a5:53:b2:a8:64:3f:
                    b1:e9:60:17:20:6b:16:9b:5f:2b:5f:fa:3b:40:46:
                    34:a3:a4:7c:2f:d0:42:98:ea:07:75:35:91:28:75:
                    8a:0f:e0:e1:1d:27:ea:e1:c5:0e:b1:6b:f4:32:a9:
                    bf:13:5c:07:b1:ff:74:55:e9:4b:75:ca:45:40:ff:
                    fe:ea:b4:79:73:55:dd:c7:51:dc:87:58:8f:b3:ec:
                    a7:1d:61:17:b7:c0:68:4b:1f:13:29:4f:c4:12:55:
                    7c:df:e5:fe:da:e9:b5:bb:7d:13:61:c9:1d:3f:d3:
                    87:62:17:f1:39:3b:66:7f:0b:10:7f:bc:c0:45:7e:
                    a1:a3:c0:1e:33:28:18:72:13:89:00:68:f4:ce:36:
                    6a:d8:7f:5c:ca:c9:95:24:96:ce:f1:16:e6:7c:cd:
                    9a:36:51:30:92:be:ec:d6:5f:2b:63:44:fa:cf:98:
                    a9:de:ba:88:97:1c:9c:40:8b:cf:3d:b9:76:fb:43:
                    7f:a9:61
                Exponent: 65537 (0x10001)
        X509v3 extensions:
            X509v3 Subject Key Identifier: 
                E2:0E:E5:03:E7:26:16:C1:A7:B3:4D:A2:6B:11:A0:15:E2:0E:5E:79
            X509v3 Authority Key Identifier: 
                9B:62:97:C7:73:B8:D8:5F:F1:CB:03:0A:38:E5:50:BD:9B:45:04:81
            X509v3 Key Usage: 
                Digital Signature, Non Repudiation
            X509v3 Extended Key Usage: 
                TLS Web Client Authentication
            X509v3 Basic Constraints: 
                CA:FALSE
            X509v3 Subject Alternative Name: 
                URI:urn:S2OPC:localhost, DNS:localhost
    Signature Algorithm: sha256WithRSAEncryption
    Signature Value:
        23:13:c8:db:53:05:77:9a:51:de:dc:02:ef:80:da:ce:18:41:
        4f:dc:fe:d5:9f:82:25:f6:4d:ba:38:e9:01:c4:10:63:0b:bb:
        b3:08:7f:8e:95:ae:7a:26:7a:49:b9:0f:a5:77:83:8c:dd:e6:
        e8:6e:6d:02:34:08:7b:97:96:2c:5e:b7:3e:23:4d:94:42:b6:
        94:59:9a:93:fb:75:e6:57:e8:72:d8:78:02:2a:59:59:bc:90:
        e7:b0:05:9e:04:f1:63:90:28:9b:70:0e:24:b5:1b:38:b3:62:
        49:19:41:cf:fa:c8:90:eb:e9:66:e8:21:42:c9:6c:d3:14:29:
        f7:92:5e:d6:12:91:b8:d7:1d:e2:8b:5a:7a:b1:67:eb:6d:77:
        98:b9:8f:65:5b:43:41:0c:c2:32:52:3f:67:09:0c:e8:c5:3c:
        b6:a3:0a:3c:08:bf:98:5c:42:f4:4a:86:fb:02:0e:83:5f:2c:
        0c:20:60:12:b2:68:28:fb:3b:65:0f:eb:07:36:b2:ff:6e:e8:
        9f:30:a7:45:19:3b:b8:38:f3:fb:32:ac:d3:0d:6f:cb:0b:48:
        90:29:dd:0a:1b:3d:a7:aa:9d:a9:b7:f7:7c:7b:9e:67:17:82:
        5d:9b:c3:8f:24:8a:47:be:56:41:cc:36:5c:c9:d4:eb:a3:70:
        46:12:55:d1:7d:bb:70:5e:5b:48:0a:ff:a3:34:59:fc:0e:4a:
        00:aa:5d:96:31:30:49:6a:9d:c9:22:81:5f:d3:13:74:0d:9e:
        c9:6c:ae:05:2a:96:6b:f3:dd:4f:5b:25:8f:74:13:30:af:e5:
        c7:dc:b5:fb:59:d0:3d:6e:a5:ae:80:e9:47:64:f6:83:b2:bb:
        89:73:58:f1:1b:f9:a9:89:06:ee:08:ef:69:1a:19:80:35:a6:
        37:5c:e8:f7:4e:47:0a:0d:0a:2d:97:b5:cf:b9:73:65:88:63:
        3f:fa:ce:72:91:fb:1d:72:a6:97:79:18:0a:54:c1:d2:01:cf:
        fa:35:ee:fa:dc:71:3c:92:e8:eb:1e:8a:18:79:4a:15:57:79:
        7a:97:15:b7:cb:da:39:bf:5d:ab:c1:bc:1d:a5:fe:f7:e9:78:
        2a:37:fc:ab:35:bc:0c:af:12:cc:d5:95:2c:26:b5:91:43:7c:
        2f:f9:61:7d:8e:af:5c:f8:eb:21:8d:25:51:ee:97:91:9f:59:
        d2:10:4d:cf:43:ba:9e:c0:2e:3b:9a:7e:ea:be:14:a9:49:da:
        3e:9b:17:03:c5:ca:81:35:57:31:50:da:37:b0:6a:4d:60:55:
        19:66:b9:83:30:61:1d:b9:ed:f6:c5:86:ac:27:74:82:7b:a2:
        76:06:79:c2:c7:7c:7d:45
-----BEGIN CERTIFICATE-----
MIIGXTCCBEWgAwIBAgIBATANBgkqhkiG9w0BAQsFADCBvDELMAkGA1UEBhMCRlIx
DzANBgNVBAgMBkZyYW5jZTERMA8GA1UECgwIU3lzdGVyZWwxRTBDBgNVBAMMPFMy
T1BDIERlbW8gQ2VydGlmaWNhdGUgQXV0aG9yaXR5IGZvciBYNTA5SWRlbnRpdHlU
b2tlbiBUZXN0czEoMCYGCSqGSIb3DQEJARYZczJvcGMtc3VwcG9ydEBzeXN0ZXJl
bC5mcjEYMBYGA1UEBwwPQWl4LWVuLVByb3ZlbmNlMB4XDTI1MDEyMjE1MzUyOFoX
DTM1MDEyMDE1MzUyOFowgYgxCzAJBgNVBAYTAkZSMQ8wDQYDVQQIDAZGcmFuY2Ux
GDAWBgNVBAcMD0FpeC1lbi1Qcm92ZW5jZTERMA8GA1UECgwIU3lzdGVyZWwxOzA5
BgNVBAMMMlMyT1BDIERlbW8gQ2VydGlmaWNhdGUgZm9yIFg1MDlJZGVudGl0eVRv
a2VuIFRlc3RzMIICIjANBgkqhkiG9w0BAQEFAAOCAg8AMIICCgKCAgEAuYneG+g2
py5iIaZxqpAcBAjlxDQMwkNGCDvdG3SsMV+yLK0No8y6jjOgXCeyqvbDeSYZlfX3
liKU+we33HGGC+93FRFVBriMoKEun27xJWi4dNfXc5cUeCuz1hR03nnO1qx4d7pj
gZ4kYyDa7l7KogxJGBE8AuJRK2ffqtItQWpC9wLfbl+tyc8qBYblTKkCOAJvpvMe
WP7nD030hpbDx2U0w4hUNW4h9CDKN9tazIhLiv2QGIzQsaDiGAaUyv4CM4TyivVs
8bcRo470lQyIWoCIz3pdE0lu7+ocSvhTtvsOCWFrotQRRH6tgGqGV94otOWYsLW+
5/38/WgeM+NIiYpb8AT3rQG41KOJgTPxe8rM/z0QlJPt9QQj36clqy0/Ri3WkdVW
YCDeEPTzVvUwnzEOJvxmhKZhg1Il2FGVU0JnmgmlU7KoZD+x6WAXIGsWm18rX/o7
QEY0o6R8L9BCmOoHdTWRKHWKD+DhHSfq4cUOsWv0Mqm/E1wHsf90VelLdcpFQP/+
6rR5c1Xdx1Hch1iPs+ynHWEXt8BoSx8TKU/EElV83+X+2um1u30TYckdP9OHYhfx
OTtmfwsQf7zARX6ho8AeMygYchOJAGj0zjZq2H9cysmVJJbO8RbmfM2aNlEwkr7s
1l8rY0T6z5ip3rqIlxycQIvPPbl2+0N/qWECAwEAAaOBmzCBmDAdBgNVHQ4EFgQU
4g7lA+cmFsGns02iaxGgFeIOXnkwHwYDVR0jBBgwFoAUm2KXx3O42F/xywMKOOVQ
vZtFBIEwCwYDVR0PBAQDAgbAMBMGA1UdJQQMMAoGCCsGAQUFBwMCMAkGA1UdEwQC
MAAwKQYDVR0RBCIwIIYTdXJuOlMyT1BDOmxvY2FsaG9zdIIJbG9jYWxob3N0MA0G
CSqGSIb3DQEBCwUAA4ICAQAjE8jbUwV3mlHe3ALvgNrOGEFP3P7Vn4Il9k26OOkB
xBBjC7uzCH+Ola56JnpJuQ+ld4OM3ebobm0CNAh7l5YsXrc+I02UQraUWZqT+3Xm
V+hy2HgCKllZvJDnsAWeBPFjkCibcA4ktRs4s2JJGUHP+siQ6+lm6CFCyWzTFCn3
kl7WEpG41x3ii1p6sWfrbXeYuY9lW0NBDMIyUj9nCQzoxTy2owo8CL+YXEL0Sob7
Ag6DXywMIGASsmgo+ztlD+sHNrL/buifMKdFGTu4OPP7MqzTDW/LC0iQKd0KGz2n
qp2pt/d8e55nF4Jdm8OPJIpHvlZBzDZcydTro3BGElXRfbtwXltICv+jNFn8DkoA
ql2WMTBJap3JIoFf0xN0DZ7JbK4FKpZr891PWyWPdBMwr+XH3LX7WdA9bqWugOlH
ZPaDsruJc1jxG/mpiQbuCO9pGhmANaY3XOj3TkcKDQotl7XPuXNliGM/+s5ykfsd
cqaXeRgKVMHSAc/6Ne763HE8kujrHooYeUoVV3l6lxW3y9o5v12rwbwdpf736Xgq
N/yrNbwMrxLM1ZUsJrWRQ3wv+WF9jq9c+OshjSVR7peRn1nSEE3PQ7qewC47mn7q
vhSpSdo+mxcDxcqBNVcxUNo3sGpNYFUZZrmDMGEdue32xYasJ3SCe6J2BnnCx3x9
RQ==
-----END CERTIFICATE-----
