Certificate:
    Data:
        Version: 3 (0x2)
        Serial Number: 1 (0x1)
        Signature Algorithm: sha256WithRSAEncryption
        Issuer: C=FR, ST=France, O=Systerel, CN=S2OPC Demo Certificate Authority for X509IdentityToken Tests/emailAddress=s2opc-support@systerel.fr, L=Aix-en-Provence
        Validity
            Not Before: Feb 14 08:40:04 2023 GMT
            Not After : Feb 13 08:40:04 2025 GMT
        Subject: C=FR, ST=France, L=Aix-en-Provence, O=Systerel, CN=S2OPC Demo Certificate for X509IdentityToken Tests
        Subject Public Key Info:
            Public Key Algorithm: rsaEncryption
                RSA Public-Key: (4096 bit)
                Modulus:
                    00:b9:89:de:1b:e8:36:a7:2e:62:21:a6:71:aa:90:
                    1c:04:08:e5:c4:34:0c:c2:43:46:08:3b:dd:1b:74:
                    ac:31:5f:b2:2c:ad:0d:a3:cc:ba:8e:33:a0:5c:27:
                    b2:aa:f6:c3:79:26:19:95:f5:f7:96:22:94:fb:07:
                    b7:dc:71:86:0b:ef:77:15:11:55:06:b8:8c:a0:a1:
                    2e:9f:6e:f1:25:68:b8:74:d7:d7:73:97:14:78:2b:
                    b3:d6:14:74:de:79:ce:d6:ac:78:77:ba:63:81:9e:
                    24:63:20:da:ee:5e:ca:a2:0c:49:18:11:3c:02:e2:
                    51:2b:67:df:aa:d2:2d:41:6a:42:f7:02:df:6e:5f:
                    ad:c9:cf:2a:05:86:e5:4c:a9:02:38:02:6f:a6:f3:
                    1e:58:fe:e7:0f:4d:f4:86:96:c3:c7:65:34:c3:88:
                    54:35:6e:21:f4:20:ca:37:db:5a:cc:88:4b:8a:fd:
                    90:18:8c:d0:b1:a0:e2:18:06:94:ca:fe:02:33:84:
                    f2:8a:f5:6c:f1:b7:11:a3:8e:f4:95:0c:88:5a:80:
                    88:cf:7a:5d:13:49:6e:ef:ea:1c:4a:f8:53:b6:fb:
                    0e:09:61:6b:a2:d4:11:44:7e:ad:80:6a:86:57:de:
                    28:b4:e5:98:b0:b5:be:e7:fd:fc:fd:68:1e:33:e3:
                    48:89:8a:5b:f0:04:f7:ad:01:b8:d4:a3:89:81:33:
                    f1:7b:ca:cc:ff:3d:10:94:93:ed:f5:04:23:df:a7:
                    25:ab:2d:3f:46:2d:d6:91:d5:56:60:20:de:10:f4:
                    f3:56:f5:30:9f:31:0e:26:fc:66:84:a6:61:83:52:
                    25:d8:51:95:53:42:67:9a:09:a5:53:b2:a8:64:3f:
                    b1:e9:60:17:20:6b:16:9b:5f:2b:5f:fa:3b:40:46:
                    34:a3:a4:7c:2f:d0:42:98:ea:07:75:35:91:28:75:
                    8a:0f:e0:e1:1d:27:ea:e1:c5:0e:b1:6b:f4:32:a9:
                    bf:13:5c:07:b1:ff:74:55:e9:4b:75:ca:45:40:ff:
                    fe:ea:b4:79:73:55:dd:c7:51:dc:87:58:8f:b3:ec:
                    a7:1d:61:17:b7:c0:68:4b:1f:13:29:4f:c4:12:55:
                    7c:df:e5:fe:da:e9:b5:bb:7d:13:61:c9:1d:3f:d3:
                    87:62:17:f1:39:3b:66:7f:0b:10:7f:bc:c0:45:7e:
                    a1:a3:c0:1e:33:28:18:72:13:89:00:68:f4:ce:36:
                    6a:d8:7f:5c:ca:c9:95:24:96:ce:f1:16:e6:7c:cd:
                    9a:36:51:30:92:be:ec:d6:5f:2b:63:44:fa:cf:98:
                    a9:de:ba:88:97:1c:9c:40:8b:cf:3d:b9:76:fb:43:
                    7f:a9:61
                Exponent: 65537 (0x10001)
        X509v3 extensions:
            X509v3 Subject Key Identifier: 
                E2:0E:E5:03:E7:26:16:C1:A7:B3:4D:A2:6B:11:A0:15:E2:0E:5E:79
            X509v3 Authority Key Identifier: 
                keyid:9B:62:97:C7:73:B8:D8:5F:F1:CB:03:0A:38:E5:50:BD:9B:45:04:81

            X509v3 Key Usage: 
                Digital Signature, Non Repudiation
            X509v3 Extended Key Usage: 
                TLS Web Client Authentication
            X509v3 Basic Constraints: 
                CA:FALSE
            X509v3 Subject Alternative Name: 
                URI:urn:S2OPC:localhost, DNS:localhost
    Signature Algorithm: sha256WithRSAEncryption
         8c:ec:4b:e0:79:cf:8e:29:70:10:11:55:3c:1a:fa:64:42:72:
         8b:80:c9:a5:19:46:c9:6a:3b:29:fd:7c:2b:62:2c:0d:2c:c9:
         58:8e:a5:67:e9:e3:bb:45:ac:78:11:a3:13:10:92:6c:77:92:
         f0:fc:79:69:da:3d:0a:d9:5c:26:64:5b:7b:b7:c0:6e:1a:68:
         f1:68:10:f7:2e:5e:d5:0f:ff:50:d0:ae:2d:0a:69:24:55:ea:
         2f:38:6e:b7:39:94:66:f6:1f:e6:f7:2b:a2:e5:8a:c8:df:29:
         32:4c:21:27:21:94:d0:78:f8:09:6f:44:2b:e5:8e:7e:7c:e2:
         09:b1:8b:0f:9c:72:73:cb:cb:28:85:1b:0a:81:03:41:21:14:
         1e:f8:d3:8b:8e:bc:8b:54:6c:60:d4:59:87:1f:39:d4:74:53:
         03:1d:d5:0e:31:e7:d2:97:88:66:94:21:df:16:c2:be:4d:dc:
         cc:0e:00:cf:f4:b1:db:04:7c:78:38:63:e1:fb:62:37:55:48:
         a6:56:5c:e6:e1:80:e5:fa:ae:73:0a:2d:7d:29:0d:65:25:fb:
         91:ce:70:66:03:15:73:82:20:bc:03:13:1c:49:d5:43:7e:56:
         ac:8f:0f:b5:79:c2:2c:b9:18:68:46:55:24:34:5b:10:ba:c8:
         4d:b0:a4:91:66:40:1a:c6:eb:61:8a:d2:cb:1f:31:85:af:fa:
         bb:63:77:d2:60:89:16:55:c4:71:ea:20:98:9a:de:45:05:5e:
         03:ae:f0:4d:c8:72:eb:7a:e3:37:d9:b6:a0:53:1c:b0:4c:36:
         78:df:20:6b:31:0b:12:56:1f:23:55:f5:b3:45:5a:f6:23:16:
         c6:ce:36:80:73:32:99:e3:7d:4d:d4:5b:d7:29:95:ee:74:d9:
         21:42:33:28:f1:af:e0:cb:75:ba:db:fe:f3:c9:48:bf:dc:28:
         ab:2b:6d:08:ea:d7:35:a2:0e:e1:6b:d8:67:d5:0f:21:71:5a:
         f2:f9:c2:0f:63:18:4b:ea:dd:72:81:8e:38:cd:71:3c:95:2c:
         3d:ae:a5:8c:98:d7:05:1f:90:f9:e7:d2:da:f7:15:9d:d9:56:
         4f:ac:9e:3e:91:90:2d:75:34:1a:29:68:8a:1c:42:85:45:92:
         0f:5d:10:ec:d7:ec:fe:a6:19:1d:5e:20:4b:e3:5c:99:f9:79:
         50:01:73:d0:da:b2:21:db:2f:e0:c3:99:eb:39:61:2a:bb:a9:
         c5:55:d3:a8:de:39:d1:b4:03:80:c5:16:e4:cf:4e:f9:99:d2:
         9c:34:d7:2f:cf:ce:da:b5:3d:ea:d3:f8:dc:07:c6:24:46:97:
         11:ea:51:10:f7:99:7f:96
-----BEGIN CERTIFICATE-----
MIIGXTCCBEWgAwIBAgIBATANBgkqhkiG9w0BAQsFADCBvDELMAkGA1UEBhMCRlIx
DzANBgNVBAgMBkZyYW5jZTERMA8GA1UECgwIU3lzdGVyZWwxRTBDBgNVBAMMPFMy
T1BDIERlbW8gQ2VydGlmaWNhdGUgQXV0aG9yaXR5IGZvciBYNTA5SWRlbnRpdHlU
b2tlbiBUZXN0czEoMCYGCSqGSIb3DQEJARYZczJvcGMtc3VwcG9ydEBzeXN0ZXJl
bC5mcjEYMBYGA1UEBwwPQWl4LWVuLVByb3ZlbmNlMB4XDTIzMDIxNDA4NDAwNFoX
DTI1MDIxMzA4NDAwNFowgYgxCzAJBgNVBAYTAkZSMQ8wDQYDVQQIDAZGcmFuY2Ux
GDAWBgNVBAcMD0FpeC1lbi1Qcm92ZW5jZTERMA8GA1UECgwIU3lzdGVyZWwxOzA5
BgNVBAMMMlMyT1BDIERlbW8gQ2VydGlmaWNhdGUgZm9yIFg1MDlJZGVudGl0eVRv
a2VuIFRlc3RzMIICIjANBgkqhkiG9w0BAQEFAAOCAg8AMIICCgKCAgEAuYneG+g2
py5iIaZxqpAcBAjlxDQMwkNGCDvdG3SsMV+yLK0No8y6jjOgXCeyqvbDeSYZlfX3
liKU+we33HGGC+93FRFVBriMoKEun27xJWi4dNfXc5cUeCuz1hR03nnO1qx4d7pj
gZ4kYyDa7l7KogxJGBE8AuJRK2ffqtItQWpC9wLfbl+tyc8qBYblTKkCOAJvpvMe
WP7nD030hpbDx2U0w4hUNW4h9CDKN9tazIhLiv2QGIzQsaDiGAaUyv4CM4TyivVs
8bcRo470lQyIWoCIz3pdE0lu7+ocSvhTtvsOCWFrotQRRH6tgGqGV94otOWYsLW+
5/38/WgeM+NIiYpb8AT3rQG41KOJgTPxe8rM/z0QlJPt9QQj36clqy0/Ri3WkdVW
YCDeEPTzVvUwnzEOJvxmhKZhg1Il2FGVU0JnmgmlU7KoZD+x6WAXIGsWm18rX/o7
QEY0o6R8L9BCmOoHdTWRKHWKD+DhHSfq4cUOsWv0Mqm/E1wHsf90VelLdcpFQP/+
6rR5c1Xdx1Hch1iPs+ynHWEXt8BoSx8TKU/EElV83+X+2um1u30TYckdP9OHYhfx
OTtmfwsQf7zARX6ho8AeMygYchOJAGj0zjZq2H9cysmVJJbO8RbmfM2aNlEwkr7s
1l8rY0T6z5ip3rqIlxycQIvPPbl2+0N/qWECAwEAAaOBmzCBmDAdBgNVHQ4EFgQU
4g7lA+cmFsGns02iaxGgFeIOXnkwHwYDVR0jBBgwFoAUm2KXx3O42F/xywMKOOVQ
vZtFBIEwCwYDVR0PBAQDAgbAMBMGA1UdJQQMMAoGCCsGAQUFBwMCMAkGA1UdEwQC
MAAwKQYDVR0RBCIwIIYTdXJuOlMyT1BDOmxvY2FsaG9zdIIJbG9jYWxob3N0MA0G
CSqGSIb3DQEBCwUAA4ICAQCM7Evgec+OKXAQEVU8GvpkQnKLgMmlGUbJajsp/Xwr
YiwNLMlYjqVn6eO7Rax4EaMTEJJsd5Lw/Hlp2j0K2VwmZFt7t8BuGmjxaBD3Ll7V
D/9Q0K4tCmkkVeovOG63OZRm9h/m9yui5YrI3ykyTCEnIZTQePgJb0Qr5Y5+fOIJ
sYsPnHJzy8sohRsKgQNBIRQe+NOLjryLVGxg1FmHHznUdFMDHdUOMefSl4hmlCHf
FsK+TdzMDgDP9LHbBHx4OGPh+2I3VUimVlzm4YDl+q5zCi19KQ1lJfuRznBmAxVz
giC8AxMcSdVDflasjw+1ecIsuRhoRlUkNFsQushNsKSRZkAaxuthitLLHzGFr/q7
Y3fSYIkWVcRx6iCYmt5FBV4DrvBNyHLreuM32bagUxywTDZ43yBrMQsSVh8jVfWz
RVr2IxbGzjaAczKZ431N1FvXKZXudNkhQjMo8a/gy3W62/7zyUi/3CirK20I6tc1
og7ha9hn1Q8hcVry+cIPYxhL6t1ygY44zXE8lSw9rqWMmNcFH5D559La9xWd2VZP
rJ4+kZAtdTQaKWiKHEKFRZIPXRDs1+z+phkdXiBL41yZ+XlQAXPQ2rIh2y/gw5nr
OWEqu6nFVdOo3jnRtAOAxRbkz075mdKcNNcvz87atT3q0/jcB8YkRpcR6lEQ95l/
lg==
-----END CERTIFICATE-----
