Certificate:
    Data:
        Version: 3 (0x2)
        Serial Number: 5 (0x5)
        Signature Algorithm: sha256WithRSAEncryption
        Issuer: C=FR, ST=France, O=Systerel, CN=S2OPC Demo Certificate Authority for X509IdentityToken Tests/emailAddress=s2opc-support@systerel.fr, L=Aix-en-Provence
        Validity
            Not Before: Jan 27 15:47:25 2023 GMT
            Not After : Jan 26 15:47:25 2025 GMT
        Subject: C=FR, ST=France, L=Aix-en-Provence, O=Systerel, CN=S2OPC Demo Certificate for X509IdentityToken Tests
        Subject Public Key Info:
            Public Key Algorithm: rsaEncryption
                RSA Public-Key: (4096 bit)
                Modulus:
                    00:f4:32:3d:4d:b6:98:dc:01:2f:01:00:74:83:2d:
                    d4:39:be:28:fe:32:94:b5:1b:4d:59:8e:be:cc:f9:
                    5e:db:b7:5a:13:cd:d1:cb:1c:e4:66:01:27:5e:28:
                    db:4b:3c:71:f0:c8:1c:78:b7:70:5b:68:94:54:32:
                    46:b1:df:5e:80:48:b2:51:81:6e:e5:4e:94:ca:69:
                    d6:eb:02:64:91:1d:d8:32:c7:e3:42:7d:8e:b8:77:
                    bb:22:68:89:41:23:ea:e6:d7:21:ed:57:90:3a:4c:
                    d8:eb:0a:8d:aa:22:38:27:00:a9:7a:12:99:2a:49:
                    f1:12:01:35:64:2f:6b:24:05:5e:d1:fa:cc:72:8f:
                    1c:f0:c5:e1:c4:d6:70:ec:f2:d6:15:f4:22:03:02:
                    13:1a:07:a0:d4:a5:38:b5:54:53:b7:34:0b:92:ca:
                    37:c2:b4:80:13:c1:94:81:b6:8f:f3:e1:d4:32:80:
                    b3:9a:a5:ec:e2:12:3b:e8:c0:be:b6:f1:17:38:ba:
                    45:7c:49:71:e3:d9:bc:78:ef:49:b9:e8:c7:f1:e7:
                    bf:43:90:16:06:0f:15:08:ac:b2:2d:21:cc:8a:24:
                    fd:5e:d2:64:f7:e6:0b:75:e0:48:fe:92:b2:dd:73:
                    56:99:d5:1a:38:64:b2:92:89:8e:8b:96:c3:30:82:
                    f3:18:55:db:2c:5f:77:8d:63:15:c7:98:b4:a6:7f:
                    c3:96:66:df:e9:8f:eb:a1:73:97:8f:7f:e7:bb:97:
                    e1:6f:fe:3b:c0:6d:da:d7:bb:23:74:dc:bd:3f:28:
                    b6:14:c2:70:27:ea:7d:72:e5:94:e3:48:0a:93:32:
                    ef:d3:28:e3:35:60:33:e8:b3:fc:4d:33:f8:79:9e:
                    26:2b:31:69:3c:a4:62:b2:55:b7:f9:b9:72:8d:70:
                    0b:c9:e6:27:f2:0e:20:f6:ed:a2:8d:a4:06:11:40:
                    a6:1b:12:70:1d:b8:00:ee:3f:df:f0:85:c7:a3:79:
                    88:41:6b:b7:5c:46:c8:74:b8:28:18:fa:d8:9e:45:
                    9b:6b:7e:d4:3f:4f:b6:cc:75:f9:dd:79:af:2c:87:
                    92:65:f9:bf:23:fd:4d:c5:32:dd:20:e8:67:e6:8d:
                    93:55:dc:50:06:5a:29:d2:38:7e:e9:1c:ef:24:6c:
                    a1:3a:f6:9a:19:20:b4:f6:fc:06:91:23:eb:64:66:
                    b0:5b:03:f9:b8:48:d5:0b:6c:03:93:bb:9b:ac:a0:
                    e5:8a:a8:97:2d:d4:8b:ca:83:98:6a:48:58:aa:0a:
                    dc:07:66:83:4d:30:1e:f4:5d:fd:bc:27:88:1f:1b:
                    c6:57:ef:a8:85:36:cf:68:0f:bd:28:74:b3:f1:78:
                    6b:7e:b1
                Exponent: 65537 (0x10001)
        X509v3 extensions:
            X509v3 Subject Key Identifier: 
                F1:9A:5C:33:BE:16:9C:6B:2C:F2:B2:4B:57:68:81:B5:12:5D:92:31
            X509v3 Authority Key Identifier: 
                keyid:AD:DC:01:3F:A9:3D:1E:E1:2E:4B:7E:36:9A:C1:ED:24:14:3A:8D:C7

            X509v3 Key Usage: 
                Digital Signature, Non Repudiation, Key Encipherment, Data Encipherment
            X509v3 Extended Key Usage: 
                TLS Web Client Authentication, TLS Web Server Authentication
            X509v3 Basic Constraints: 
                CA:FALSE
            X509v3 Subject Alternative Name: 
                URI:urn:S2OPC:localhost, DNS:localhost
    Signature Algorithm: sha256WithRSAEncryption
         7e:98:32:3a:dc:eb:ea:53:50:d6:a0:07:44:3e:5b:7e:e1:33:
         26:fc:e2:9a:90:e7:2e:c1:e4:75:5f:22:df:d7:7e:cb:5c:9a:
         43:d1:e8:d1:6b:d6:69:88:ee:94:89:38:88:cc:28:41:5e:73:
         0e:09:0d:64:3a:98:10:76:29:d9:bd:65:8d:f3:71:a1:b6:0c:
         f0:17:d9:ee:13:ac:8d:e2:0b:fd:77:b2:71:e5:c2:60:3c:6d:
         85:5d:a4:ba:aa:c1:82:19:56:37:0b:cc:10:03:2f:b9:94:1c:
         28:53:c8:f2:3a:16:a7:68:e2:7c:d1:37:34:5d:e3:18:c2:77:
         27:bf:9b:c2:ee:76:3d:7e:cc:34:80:05:a0:46:27:ba:82:0e:
         cf:e5:44:b2:d4:df:cb:71:6f:fe:53:59:3b:1d:ce:77:0c:5e:
         00:51:10:e2:62:b2:fc:9b:0c:3a:a7:1c:be:6c:b1:db:bb:85:
         69:21:7b:09:2d:d6:91:62:a9:90:72:7e:fc:ac:b9:49:95:ce:
         7c:ca:04:c3:25:d2:21:1c:4b:f8:66:28:cc:2b:3b:a9:27:12:
         87:32:78:70:ce:4c:67:ca:bc:4c:c8:cf:01:af:94:6e:54:d9:
         c2:17:e1:f5:b8:a3:a0:01:e5:f4:72:82:4f:3c:34:78:b1:46:
         ed:1e:90:40:db:cb:fa:c0:7d:32:9d:78:e5:6c:e1:71:50:fe:
         32:34:57:d2:bc:4c:10:d2:fd:17:7a:37:d9:62:ea:a6:af:4a:
         f3:4a:86:d2:3c:83:d1:3d:94:3c:0e:b4:c7:af:1e:02:9c:1d:
         e5:3e:fa:99:d1:bd:9f:fa:80:3d:48:da:bc:69:47:39:a9:6b:
         a4:e9:42:57:bc:0f:85:14:86:9c:6f:a5:c2:39:24:62:d1:3e:
         cb:69:e5:0f:3e:bd:77:f5:ca:47:a5:49:c7:1f:c4:bf:ed:75:
         0a:6e:0c:cf:1f:4d:20:34:67:80:fc:b3:81:33:ea:49:5c:82:
         7f:10:b7:c8:82:5a:e0:ed:93:3b:b3:28:2e:86:cf:12:0d:c4:
         47:02:1e:2c:e5:91:8d:f0:37:e1:d2:c5:2e:77:9c:7e:a8:4e:
         c1:a9:79:6c:50:57:57:33:a9:19:2c:b5:68:cb:0d:60:3c:b2:
         d6:55:68:c4:5c:05:cb:89:80:89:67:fc:b4:19:fd:d6:7c:e9:
         74:3a:f5:ef:2b:f8:d3:44:48:64:7a:ee:35:bf:3b:50:1d:35:
         42:ae:f3:ec:36:10:e7:fa:cd:93:33:33:7c:9d:c5:b7:36:aa:
         a2:e2:bf:e7:3e:16:2a:6d:3f:26:f1:19:52:9a:20:7b:81:c6:
         80:ba:39:8e:46:61:dc:2e
-----BEGIN CERTIFICATE-----
MIIGZzCCBE+gAwIBAgIBBTANBgkqhkiG9w0BAQsFADCBvDELMAkGA1UEBhMCRlIx
DzANBgNVBAgMBkZyYW5jZTERMA8GA1UECgwIU3lzdGVyZWwxRTBDBgNVBAMMPFMy
T1BDIERlbW8gQ2VydGlmaWNhdGUgQXV0aG9yaXR5IGZvciBYNTA5SWRlbnRpdHlU
b2tlbiBUZXN0czEoMCYGCSqGSIb3DQEJARYZczJvcGMtc3VwcG9ydEBzeXN0ZXJl
bC5mcjEYMBYGA1UEBwwPQWl4LWVuLVByb3ZlbmNlMB4XDTIzMDEyNzE1NDcyNVoX
DTI1MDEyNjE1NDcyNVowgYgxCzAJBgNVBAYTAkZSMQ8wDQYDVQQIDAZGcmFuY2Ux
GDAWBgNVBAcMD0FpeC1lbi1Qcm92ZW5jZTERMA8GA1UECgwIU3lzdGVyZWwxOzA5
BgNVBAMMMlMyT1BDIERlbW8gQ2VydGlmaWNhdGUgZm9yIFg1MDlJZGVudGl0eVRv
a2VuIFRlc3RzMIICIjANBgkqhkiG9w0BAQEFAAOCAg8AMIICCgKCAgEA9DI9TbaY
3AEvAQB0gy3UOb4o/jKUtRtNWY6+zPle27daE83RyxzkZgEnXijbSzxx8MgceLdw
W2iUVDJGsd9egEiyUYFu5U6UymnW6wJkkR3YMsfjQn2OuHe7ImiJQSPq5tch7VeQ
OkzY6wqNqiI4JwCpehKZKknxEgE1ZC9rJAVe0frMco8c8MXhxNZw7PLWFfQiAwIT
Ggeg1KU4tVRTtzQLkso3wrSAE8GUgbaP8+HUMoCzmqXs4hI76MC+tvEXOLpFfElx
49m8eO9JuejH8ee/Q5AWBg8VCKyyLSHMiiT9XtJk9+YLdeBI/pKy3XNWmdUaOGSy
komOi5bDMILzGFXbLF93jWMVx5i0pn/Dlmbf6Y/roXOXj3/nu5fhb/47wG3a17sj
dNy9Pyi2FMJwJ+p9cuWU40gKkzLv0yjjNWAz6LP8TTP4eZ4mKzFpPKRislW3+bly
jXALyeYn8g4g9u2ijaQGEUCmGxJwHbgA7j/f8IXHo3mIQWu3XEbIdLgoGPrYnkWb
a37UP0+2zHX53XmvLIeSZfm/I/1NxTLdIOhn5o2TVdxQBlop0jh+6RzvJGyhOvaa
GSC09vwGkSPrZGawWwP5uEjVC2wDk7ubrKDliqiXLdSLyoOYakhYqgrcB2aDTTAe
9F39vCeIHxvGV++ohTbPaA+9KHSz8XhrfrECAwEAAaOBpTCBojAdBgNVHQ4EFgQU
8ZpcM74WnGss8rJLV2iBtRJdkjEwHwYDVR0jBBgwFoAUrdwBP6k9HuEuS342msHt
JBQ6jccwCwYDVR0PBAQDAgTwMB0GA1UdJQQWMBQGCCsGAQUFBwMCBggrBgEFBQcD
ATAJBgNVHRMEAjAAMCkGA1UdEQQiMCCGE3VybjpTMk9QQzpsb2NhbGhvc3SCCWxv
Y2FsaG9zdDANBgkqhkiG9w0BAQsFAAOCAgEAfpgyOtzr6lNQ1qAHRD5bfuEzJvzi
mpDnLsHkdV8i39d+y1yaQ9Ho0WvWaYjulIk4iMwoQV5zDgkNZDqYEHYp2b1ljfNx
obYM8BfZ7hOsjeIL/XeyceXCYDxthV2kuqrBghlWNwvMEAMvuZQcKFPI8joWp2ji
fNE3NF3jGMJ3J7+bwu52PX7MNIAFoEYnuoIOz+VEstTfy3Fv/lNZOx3OdwxeAFEQ
4mKy/JsMOqccvmyx27uFaSF7CS3WkWKpkHJ+/Ky5SZXOfMoEwyXSIRxL+GYozCs7
qScShzJ4cM5MZ8q8TMjPAa+UblTZwhfh9bijoAHl9HKCTzw0eLFG7R6QQNvL+sB9
Mp145WzhcVD+MjRX0rxMENL9F3o32WLqpq9K80qG0jyD0T2UPA60x68eApwd5T76
mdG9n/qAPUjavGlHOalrpOlCV7wPhRSGnG+lwjkkYtE+y2nlDz69d/XKR6VJxx/E
v+11Cm4Mzx9NIDRngPyzgTPqSVyCfxC3yIJa4O2TO7MoLobPEg3ERwIeLOWRjfA3
4dLFLnecfqhOwal5bFBXVzOpGSy1aMsNYDyy1lVoxFwFy4mAiWf8tBn91nzpdDr1
7yv400RIZHruNb87UB01Qq7z7DYQ5/rNkzMzfJ3FtzaqouK/5z4WKm0/JvEZUpog
e4HGgLo5jkZh3C4=
-----END CERTIFICATE-----
