Certificate:
    Data:
        Version: 3 (0x2)
        Serial Number: 4 (0x4)
        Signature Algorithm: sha256WithRSAEncryption
        Issuer: C=FR, ST=France, O=Systerel, CN=S2OPC Demo Certificate Authority for X509IdentityToken Tests/emailAddress=s2opc-support@systerel.fr, L=Aix-en-Provence
        Validity
            Not Before: Jan 27 15:47:25 2023 GMT
            Not After : Jan 26 15:47:25 2025 GMT
        Subject: C=FR, ST=France, L=Aix-en-Provence, O=Systerel, CN=S2OPC Demo Certificate for X509IdentityToken Tests
        Subject Public Key Info:
            Public Key Algorithm: rsaEncryption
                RSA Public-Key: (2048 bit)
                Modulus:
                    00:c8:61:cd:ae:dc:05:1f:fa:d4:1f:0e:f8:7a:2f:
                    3e:95:13:eb:ab:f8:af:e0:7d:a3:7e:56:85:05:af:
                    d3:eb:c0:7c:f4:7e:7e:04:e0:39:d9:43:6b:18:8b:
                    9c:1a:d2:fc:09:96:8f:cc:48:70:00:e9:7a:9f:21:
                    03:9c:a5:9a:8d:3e:b2:0a:e6:83:03:4a:2d:f9:04:
                    74:26:9a:21:fd:6e:5a:57:f1:8a:75:2f:21:c4:00:
                    00:c1:af:0d:34:95:24:4a:30:06:f6:c5:b2:f1:bb:
                    4c:fc:20:b8:90:41:f9:3e:7e:57:64:34:49:00:ba:
                    14:70:16:ad:6a:bc:93:7c:92:bd:53:53:73:5d:25:
                    de:3b:e9:02:c1:29:7e:c1:60:db:b9:bb:62:a7:d2:
                    63:37:2c:d1:fb:dc:70:6b:be:4b:29:2d:17:1b:b7:
                    bf:6a:58:4d:26:92:de:c4:31:62:b9:d5:e2:56:eb:
                    1a:b2:b5:f6:c5:b2:41:60:d8:98:aa:8e:ec:c9:40:
                    c0:d0:d4:50:fd:11:b4:ab:93:70:e8:f8:83:0f:c9:
                    ca:1b:fb:7b:7d:a1:40:c2:1b:80:94:e5:e0:57:bb:
                    57:a2:f8:1d:37:f8:a9:25:46:cd:43:40:bf:07:c6:
                    d1:f1:8c:9d:b4:88:68:f8:7d:6b:57:f3:63:3a:7a:
                    98:c1
                Exponent: 65537 (0x10001)
        X509v3 extensions:
            X509v3 Subject Key Identifier: 
                2C:4B:C3:54:E9:FE:DE:D3:2E:10:C1:9C:48:8C:9A:FD:83:B7:46:12
            X509v3 Authority Key Identifier: 
                keyid:AD:DC:01:3F:A9:3D:1E:E1:2E:4B:7E:36:9A:C1:ED:24:14:3A:8D:C7

            X509v3 Key Usage: 
                Digital Signature, Non Repudiation, Key Encipherment, Data Encipherment
            X509v3 Extended Key Usage: 
                TLS Web Client Authentication, TLS Web Server Authentication
            X509v3 Basic Constraints: 
                CA:FALSE
            X509v3 Subject Alternative Name: 
                URI:urn:S2OPC:localhost, DNS:localhost
    Signature Algorithm: sha256WithRSAEncryption
         af:65:aa:c8:43:a4:35:09:27:89:78:42:32:f2:81:63:01:80:
         29:35:ab:f2:50:a6:a4:f5:24:7c:43:b4:12:69:3c:d5:39:02:
         02:5b:cc:03:ba:55:0c:9a:bc:64:47:53:d6:14:12:d4:ad:fa:
         96:9b:4c:c2:30:c0:11:b3:ec:11:ce:e5:31:92:78:50:67:0a:
         44:cb:02:08:e4:6d:8c:77:61:13:c8:36:89:98:a1:2d:91:bb:
         ea:38:f3:b4:db:f6:e5:30:f3:b9:20:23:67:61:c3:3c:da:a9:
         fe:2b:61:a2:06:15:04:63:7a:c5:f8:78:63:5a:ef:9d:d3:ba:
         3b:8b:89:73:e4:41:c5:98:42:16:d4:5d:1f:73:c8:12:c9:03:
         3d:24:38:e2:9d:85:a9:27:e9:1f:8a:08:c4:af:23:67:18:9c:
         c5:26:ec:c1:e3:6b:4d:d2:58:34:51:3e:b0:b1:56:5e:ec:2f:
         04:23:ee:a5:3f:e4:ef:6b:2f:7a:df:e6:80:7a:27:be:8c:00:
         48:40:18:7f:ad:3b:6e:d8:c5:34:d7:f8:66:3b:b8:a5:e9:49:
         e3:3c:1b:76:80:e9:05:60:06:26:e8:f9:59:3b:19:db:89:88:
         81:35:2e:b9:69:bd:55:c4:eb:98:27:b7:13:62:34:6a:2d:ed:
         62:56:e0:92:d5:9b:a8:f0:d5:2d:ec:38:7d:7f:fb:c0:12:9e:
         64:01:87:30:ef:97:74:47:ae:cc:c8:89:3a:30:31:dd:12:d1:
         ef:00:f7:c4:03:ff:a1:f5:59:e9:eb:d3:fc:45:17:96:73:12:
         b9:b2:a7:03:ee:5d:10:71:6e:39:62:ec:fb:45:65:6b:10:91:
         9d:b2:16:89:a1:3b:65:20:b6:fc:6e:c0:f1:2f:a3:b3:4a:51:
         a8:22:cd:2b:c4:3c:f7:0d:20:17:eb:c3:74:3e:b6:09:ff:e2:
         8d:db:93:6a:bc:96:d1:02:c9:70:be:0c:db:f0:5b:85:05:fd:
         94:90:68:ba:4e:bc:92:de:6b:e3:85:e8:18:a0:ba:20:71:5c:
         f3:23:5e:a0:79:b5:c8:ff:12:f8:62:d9:e6:2b:34:4d:d7:7b:
         f6:60:0a:e9:84:4a:e7:a5:55:35:25:8a:8c:49:72:de:e8:7d:
         d3:8d:2e:4f:ab:c2:af:2e:ac:23:6e:fa:fe:62:ef:0d:4c:6f:
         04:94:68:fd:9b:9c:55:50:ad:d7:94:5b:51:eb:a4:45:12:e7:
         a1:7a:7a:d5:f0:60:d8:cc:63:e7:a1:e0:da:90:28:d0:16:1b:
         a7:20:50:b5:b7:c7:e8:c1:01:c6:58:f9:bd:e4:18:95:8d:f5:
         a3:6e:df:30:a9:1d:8b:48
-----BEGIN CERTIFICATE-----
MIIFZzCCA0+gAwIBAgIBBDANBgkqhkiG9w0BAQsFADCBvDELMAkGA1UEBhMCRlIx
DzANBgNVBAgMBkZyYW5jZTERMA8GA1UECgwIU3lzdGVyZWwxRTBDBgNVBAMMPFMy
T1BDIERlbW8gQ2VydGlmaWNhdGUgQXV0aG9yaXR5IGZvciBYNTA5SWRlbnRpdHlU
b2tlbiBUZXN0czEoMCYGCSqGSIb3DQEJARYZczJvcGMtc3VwcG9ydEBzeXN0ZXJl
bC5mcjEYMBYGA1UEBwwPQWl4LWVuLVByb3ZlbmNlMB4XDTIzMDEyNzE1NDcyNVoX
DTI1MDEyNjE1NDcyNVowgYgxCzAJBgNVBAYTAkZSMQ8wDQYDVQQIDAZGcmFuY2Ux
GDAWBgNVBAcMD0FpeC1lbi1Qcm92ZW5jZTERMA8GA1UECgwIU3lzdGVyZWwxOzA5
BgNVBAMMMlMyT1BDIERlbW8gQ2VydGlmaWNhdGUgZm9yIFg1MDlJZGVudGl0eVRv
a2VuIFRlc3RzMIIBIjANBgkqhkiG9w0BAQEFAAOCAQ8AMIIBCgKCAQEAyGHNrtwF
H/rUHw74ei8+lRPrq/iv4H2jflaFBa/T68B89H5+BOA52UNrGIucGtL8CZaPzEhw
AOl6nyEDnKWajT6yCuaDA0ot+QR0Jpoh/W5aV/GKdS8hxAAAwa8NNJUkSjAG9sWy
8btM/CC4kEH5Pn5XZDRJALoUcBataryTfJK9U1NzXSXeO+kCwSl+wWDbubtip9Jj
NyzR+9xwa75LKS0XG7e/alhNJpLexDFiudXiVusasrX2xbJBYNiYqo7syUDA0NRQ
/RG0q5Nw6PiDD8nKG/t7faFAwhuAlOXgV7tXovgdN/ipJUbNQ0C/B8bR8YydtIho
+H1rV/NjOnqYwQIDAQABo4GlMIGiMB0GA1UdDgQWBBQsS8NU6f7e0y4QwZxIjJr9
g7dGEjAfBgNVHSMEGDAWgBSt3AE/qT0e4S5Lfjaawe0kFDqNxzALBgNVHQ8EBAMC
BPAwHQYDVR0lBBYwFAYIKwYBBQUHAwIGCCsGAQUFBwMBMAkGA1UdEwQCMAAwKQYD
VR0RBCIwIIYTdXJuOlMyT1BDOmxvY2FsaG9zdIIJbG9jYWxob3N0MA0GCSqGSIb3
DQEBCwUAA4ICAQCvZarIQ6Q1CSeJeEIy8oFjAYApNavyUKak9SR8Q7QSaTzVOQIC
W8wDulUMmrxkR1PWFBLUrfqWm0zCMMARs+wRzuUxknhQZwpEywII5G2Md2ETyDaJ
mKEtkbvqOPO02/blMPO5ICNnYcM82qn+K2GiBhUEY3rF+HhjWu+d07o7i4lz5EHF
mEIW1F0fc8gSyQM9JDjinYWpJ+kfigjEryNnGJzFJuzB42tN0lg0UT6wsVZe7C8E
I+6lP+Tvay963+aAeie+jABIQBh/rTtu2MU01/hmO7il6UnjPBt2gOkFYAYm6PlZ
OxnbiYiBNS65ab1VxOuYJ7cTYjRqLe1iVuCS1Zuo8NUt7Dh9f/vAEp5kAYcw75d0
R67MyIk6MDHdEtHvAPfEA/+h9Vnp69P8RReWcxK5sqcD7l0QcW45Yuz7RWVrEJGd
shaJoTtlILb8bsDxL6OzSlGoIs0rxDz3DSAX68N0PrYJ/+KN25NqvJbRAslwvgzb
8FuFBf2UkGi6TryS3mvjhegYoLogcVzzI16gebXI/xL4YtnmKzRN13v2YArphErn
pVU1JYqMSXLe6H3TjS5Pq8KvLqwjbvr+Yu8NTG8ElGj9m5xVUK3XlFtR66RFEueh
enrV8GDYzGPnoeDakCjQFhunIFC1t8fowQHGWPm95BiVjfWjbt8wqR2LSA==
-----END CERTIFICATE-----
