Certificate:
    Data:
        Version: 3 (0x2)
        Serial Number: 0 (0x0)
        Signature Algorithm: sha256WithRSAEncryption
        Issuer: C=FR, ST=France, O=Systerel, CN=S2OPC Demo Certificate Authority for X509IdentityToken Tests/emailAddress=s2opc-support@systerel.fr, L=Aix-en-Provence
        Validity
            Not Before: Feb 14 08:40:04 2023 GMT
            Not After : Feb 13 08:40:04 2025 GMT
        Subject: C=FR, ST=France, L=Aix-en-Provence, O=Systerel, CN=S2OPC Demo Certificate for X509IdentityToken Tests
        Subject Public Key Info:
            Public Key Algorithm: rsaEncryption
                RSA Public-Key: (2048 bit)
                Modulus:
                    00:bf:f3:2b:98:80:d8:98:93:d9:38:96:d1:74:f5:
                    4a:ce:ab:6c:1b:bc:c6:b1:66:43:de:13:7d:29:6e:
                    cc:3f:ec:c9:10:06:6d:3b:a9:0f:7c:6b:07:e0:ab:
                    90:68:54:60:a3:97:c7:55:8f:f2:dc:04:30:37:84:
                    70:8e:cc:4a:3f:3b:88:48:89:27:93:d3:ba:65:43:
                    c3:18:cf:b6:d5:30:aa:30:83:84:a2:73:62:b9:fe:
                    06:67:74:57:65:4c:a4:ef:ac:49:9e:41:91:15:ab:
                    90:39:29:94:65:29:ab:d9:d6:0b:b4:99:e9:76:4c:
                    8a:4b:74:48:86:8e:99:11:5d:91:fc:8a:5d:b2:f0:
                    42:49:3f:ef:93:07:fb:d1:5a:a3:43:78:99:19:21:
                    9b:0f:c6:1f:3f:6e:c9:a4:44:09:4b:c1:ba:41:1a:
                    bf:b0:e1:7d:f4:83:2c:79:65:62:bf:c6:4f:14:1e:
                    b4:54:a7:6f:d0:88:c6:03:9d:f4:a8:87:b9:e6:36:
                    ff:70:8d:a2:7f:ea:7d:83:aa:9a:fb:ec:98:38:0d:
                    50:56:2e:4e:32:4b:8c:76:e7:2e:28:0f:ec:e4:99:
                    cd:a5:f4:47:72:26:06:80:a8:d6:11:5d:65:78:aa:
                    b1:f2:2b:a6:d8:4a:00:e6:38:99:0b:ae:c0:90:82:
                    70:a1
                Exponent: 65537 (0x10001)
        X509v3 extensions:
            X509v3 Subject Key Identifier: 
                C0:59:16:10:CF:23:A8:B6:6F:D8:40:A1:81:1C:22:5D:F1:2D:01:D7
            X509v3 Authority Key Identifier: 
                keyid:9B:62:97:C7:73:B8:D8:5F:F1:CB:03:0A:38:E5:50:BD:9B:45:04:81

            X509v3 Key Usage: 
                Digital Signature, Non Repudiation
            X509v3 Extended Key Usage: 
                TLS Web Client Authentication
            X509v3 Basic Constraints: 
                CA:FALSE
            X509v3 Subject Alternative Name: 
                URI:urn:S2OPC:localhost, DNS:localhost
    Signature Algorithm: sha256WithRSAEncryption
         d6:3f:76:5c:33:b4:eb:e1:58:41:03:1f:3c:50:54:27:ad:ed:
         67:60:bf:86:12:f2:b5:87:31:44:2c:a8:cf:3e:3f:3e:ac:10:
         55:94:8b:f5:3d:ac:e8:ec:35:83:cc:21:80:16:b2:38:f3:91:
         2d:62:c5:20:dc:50:0b:18:33:ad:fc:26:8f:12:26:a9:d9:42:
         64:54:93:ee:dc:3c:ce:eb:80:0b:4e:43:35:a5:54:34:0c:32:
         b7:ef:c9:47:de:41:6d:d3:4c:5c:0a:b9:01:4d:ee:21:87:97:
         e1:c8:89:11:e5:4a:75:80:04:ee:26:88:a1:1a:f6:2c:44:42:
         42:c7:f6:11:c0:1f:ad:4b:b0:09:14:75:9d:97:ef:6b:e8:3a:
         25:01:70:8c:e9:87:47:33:5d:80:f2:ac:b7:b4:ec:cf:66:1b:
         cf:d4:d5:d4:ff:e1:aa:31:b7:ef:cc:78:ca:d2:c5:e7:87:d5:
         1f:f3:9f:ea:03:ca:2e:95:42:db:31:43:29:0d:87:b0:3c:1e:
         f6:38:56:0b:80:fc:b7:10:81:93:1e:66:9d:2a:74:81:c4:e0:
         c2:c5:7e:4d:49:ff:4c:ec:81:3e:b7:dc:4e:9f:69:cb:9b:d8:
         47:ca:ec:08:76:fc:9d:f9:01:90:e3:f0:13:97:39:05:93:43:
         07:52:43:db:51:90:e2:27:a7:d0:71:eb:60:eb:66:7a:ca:c6:
         c8:81:1c:73:57:3e:0c:71:25:ac:69:b2:46:99:85:7d:c3:4c:
         e4:d5:4f:2c:7d:7a:be:dc:57:4d:a7:35:60:9e:bc:b7:d1:6a:
         1d:4f:31:70:bd:f3:79:19:e4:2f:6f:dc:c4:e6:6a:55:09:ab:
         f0:bd:64:72:81:b7:b2:a7:ed:c1:21:47:99:09:62:5e:8f:49:
         97:e3:ac:e0:83:15:76:fb:ba:dd:73:c8:b6:f9:e4:a2:0e:1e:
         db:ee:96:52:1d:34:4d:a7:94:63:f5:bb:9f:5a:2d:91:8c:a3:
         9c:a7:36:a9:02:f7:22:29:62:a0:cd:38:61:97:da:2f:72:94:
         f7:fb:dc:36:f6:42:ce:a6:2c:7c:26:45:3f:14:a9:b6:0e:93:
         29:ef:ac:0d:e4:91:d0:69:be:c7:1c:8f:c5:93:4f:ca:ad:91:
         19:33:4a:b3:10:f7:95:0e:70:22:5d:d4:ff:1e:ef:2e:77:a1:
         bb:a6:ed:3e:76:2f:66:7d:d7:41:a1:25:de:96:c4:44:d4:fa:
         16:d7:93:dd:1f:8e:84:87:7a:98:f1:50:62:76:72:c2:cf:cd:
         05:bc:61:f3:02:8a:72:d7:2c:22:7c:df:b9:13:4e:15:72:75:
         54:5e:7a:6f:89:da:35:8f
-----BEGIN CERTIFICATE-----
MIIFXTCCA0WgAwIBAgIBADANBgkqhkiG9w0BAQsFADCBvDELMAkGA1UEBhMCRlIx
DzANBgNVBAgMBkZyYW5jZTERMA8GA1UECgwIU3lzdGVyZWwxRTBDBgNVBAMMPFMy
T1BDIERlbW8gQ2VydGlmaWNhdGUgQXV0aG9yaXR5IGZvciBYNTA5SWRlbnRpdHlU
b2tlbiBUZXN0czEoMCYGCSqGSIb3DQEJARYZczJvcGMtc3VwcG9ydEBzeXN0ZXJl
bC5mcjEYMBYGA1UEBwwPQWl4LWVuLVByb3ZlbmNlMB4XDTIzMDIxNDA4NDAwNFoX
DTI1MDIxMzA4NDAwNFowgYgxCzAJBgNVBAYTAkZSMQ8wDQYDVQQIDAZGcmFuY2Ux
GDAWBgNVBAcMD0FpeC1lbi1Qcm92ZW5jZTERMA8GA1UECgwIU3lzdGVyZWwxOzA5
BgNVBAMMMlMyT1BDIERlbW8gQ2VydGlmaWNhdGUgZm9yIFg1MDlJZGVudGl0eVRv
a2VuIFRlc3RzMIIBIjANBgkqhkiG9w0BAQEFAAOCAQ8AMIIBCgKCAQEAv/MrmIDY
mJPZOJbRdPVKzqtsG7zGsWZD3hN9KW7MP+zJEAZtO6kPfGsH4KuQaFRgo5fHVY/y
3AQwN4RwjsxKPzuISIknk9O6ZUPDGM+21TCqMIOEonNiuf4GZ3RXZUyk76xJnkGR
FauQOSmUZSmr2dYLtJnpdkyKS3RIho6ZEV2R/IpdsvBCST/vkwf70VqjQ3iZGSGb
D8YfP27JpEQJS8G6QRq/sOF99IMseWViv8ZPFB60VKdv0IjGA530qIe55jb/cI2i
f+p9g6qa++yYOA1QVi5OMkuMducuKA/s5JnNpfRHciYGgKjWEV1leKqx8ium2EoA
5jiZC67AkIJwoQIDAQABo4GbMIGYMB0GA1UdDgQWBBTAWRYQzyOotm/YQKGBHCJd
8S0B1zAfBgNVHSMEGDAWgBSbYpfHc7jYX/HLAwo45VC9m0UEgTALBgNVHQ8EBAMC
BsAwEwYDVR0lBAwwCgYIKwYBBQUHAwIwCQYDVR0TBAIwADApBgNVHREEIjAghhN1
cm46UzJPUEM6bG9jYWxob3N0gglsb2NhbGhvc3QwDQYJKoZIhvcNAQELBQADggIB
ANY/dlwztOvhWEEDHzxQVCet7Wdgv4YS8rWHMUQsqM8+Pz6sEFWUi/U9rOjsNYPM
IYAWsjjzkS1ixSDcUAsYM638Jo8SJqnZQmRUk+7cPM7rgAtOQzWlVDQMMrfvyUfe
QW3TTFwKuQFN7iGHl+HIiRHlSnWABO4miKEa9ixEQkLH9hHAH61LsAkUdZ2X72vo
OiUBcIzph0czXYDyrLe07M9mG8/U1dT/4aoxt+/MeMrSxeeH1R/zn+oDyi6VQtsx
QykNh7A8HvY4VguA/LcQgZMeZp0qdIHE4MLFfk1J/0zsgT633E6facub2EfK7Ah2
/J35AZDj8BOXOQWTQwdSQ9tRkOInp9Bx62DrZnrKxsiBHHNXPgxxJaxpskaZhX3D
TOTVTyx9er7cV02nNWCevLfRah1PMXC983kZ5C9v3MTmalUJq/C9ZHKBt7Kn7cEh
R5kJYl6PSZfjrOCDFXb7ut1zyLb55KIOHtvullIdNE2nlGP1u59aLZGMo5ynNqkC
9yIpYqDNOGGX2i9ylPf73Db2Qs6mLHwmRT8UqbYOkynvrA3kkdBpvsccj8WTT8qt
kRkzSrMQ95UOcCJd1P8e7y53obum7T52L2Z910GhJd6WxETU+hbXk90fjoSHepjx
UGJ2csLPzQW8YfMCinLXLCJ837kTThVydVReem+J2jWP
-----END CERTIFICATE-----
