Certificate:
    Data:
        Version: 3 (0x2)
        Serial Number: 0 (0x0)
        Signature Algorithm: sha256WithRSAEncryption
        Issuer: C=FR, ST=France, O=Systerel, CN=S2OPC Demo Certificate Authority for X509IdentityToken Tests/emailAddress=s2opc-support@systerel.fr, L=Aix-en-Provence
        Validity
            Not Before: Jan 22 15:35:25 2025 GMT
            Not After : Jan 20 15:35:25 2035 GMT
        Subject: C=FR, ST=France, L=Aix-en-Provence, O=Systerel, CN=S2OPC Demo Certificate for X509IdentityToken Tests
        Subject Public Key Info:
            Public Key Algorithm: rsaEncryption
                Public-Key: (2048 bit)
                Modulus:
                    00:bf:f3:2b:98:80:d8:98:93:d9:38:96:d1:74:f5:
                    4a:ce:ab:6c:1b:bc:c6:b1:66:43:de:13:7d:29:6e:
                    cc:3f:ec:c9:10:06:6d:3b:a9:0f:7c:6b:07:e0:ab:
                    90:68:54:60:a3:97:c7:55:8f:f2:dc:04:30:37:84:
                    70:8e:cc:4a:3f:3b:88:48:89:27:93:d3:ba:65:43:
                    c3:18:cf:b6:d5:30:aa:30:83:84:a2:73:62:b9:fe:
                    06:67:74:57:65:4c:a4:ef:ac:49:9e:41:91:15:ab:
                    90:39:29:94:65:29:ab:d9:d6:0b:b4:99:e9:76:4c:
                    8a:4b:74:48:86:8e:99:11:5d:91:fc:8a:5d:b2:f0:
                    42:49:3f:ef:93:07:fb:d1:5a:a3:43:78:99:19:21:
                    9b:0f:c6:1f:3f:6e:c9:a4:44:09:4b:c1:ba:41:1a:
                    bf:b0:e1:7d:f4:83:2c:79:65:62:bf:c6:4f:14:1e:
                    b4:54:a7:6f:d0:88:c6:03:9d:f4:a8:87:b9:e6:36:
                    ff:70:8d:a2:7f:ea:7d:83:aa:9a:fb:ec:98:38:0d:
                    50:56:2e:4e:32:4b:8c:76:e7:2e:28:0f:ec:e4:99:
                    cd:a5:f4:47:72:26:06:80:a8:d6:11:5d:65:78:aa:
                    b1:f2:2b:a6:d8:4a:00:e6:38:99:0b:ae:c0:90:82:
                    70:a1
                Exponent: 65537 (0x10001)
        X509v3 extensions:
            X509v3 Subject Key Identifier: 
                C0:59:16:10:CF:23:A8:B6:6F:D8:40:A1:81:1C:22:5D:F1:2D:01:D7
            X509v3 Authority Key Identifier: 
                9B:62:97:C7:73:B8:D8:5F:F1:CB:03:0A:38:E5:50:BD:9B:45:04:81
            X509v3 Key Usage: 
                Digital Signature, Non Repudiation
            X509v3 Extended Key Usage: 
                TLS Web Client Authentication
            X509v3 Basic Constraints: 
                CA:FALSE
            X509v3 Subject Alternative Name: 
                URI:urn:S2OPC:localhost, DNS:localhost
    Signature Algorithm: sha256WithRSAEncryption
    Signature Value:
        0b:0c:94:b0:fb:0c:88:6e:e9:0b:e1:57:a0:a3:d3:7d:06:65:
        3e:f9:d0:b2:6e:bc:fb:0a:1f:24:4f:c1:8a:d2:9a:9b:5e:54:
        3a:69:11:4e:d2:3f:86:3d:06:85:51:4b:13:35:23:59:71:0f:
        d9:90:e3:b0:bd:9b:40:90:2f:0f:6f:53:20:95:44:87:bf:05:
        21:b4:fb:6a:9c:8a:4a:df:ed:85:36:96:20:1b:3f:5f:61:1c:
        3d:4e:71:0a:73:d4:2f:2a:08:d3:15:b1:02:fe:23:bf:97:31:
        f1:72:07:52:0b:0d:11:b1:7c:17:ff:03:d5:dd:92:26:d8:d4:
        b1:4d:d3:38:80:9f:dd:f5:3d:a6:37:1a:90:5e:45:7b:26:e8:
        10:a2:40:dc:39:19:d6:a1:6b:d8:77:6b:18:b8:90:88:b7:43:
        a5:87:a0:7a:9e:48:69:3a:a5:19:53:8d:45:fb:28:80:03:de:
        d5:de:d7:cd:91:eb:5a:9f:4b:66:2d:46:25:65:73:f8:5b:b6:
        36:85:bc:5b:20:30:78:af:60:bf:dc:46:1b:81:55:39:92:86:
        fb:0a:9e:7c:da:69:56:1d:5a:c3:e5:63:e5:9e:92:76:c3:7f:
        96:9d:e9:8e:b4:47:a6:04:67:27:5e:21:67:5c:3c:30:1e:ce:
        ce:f1:75:4f:b2:04:c1:3a:e5:ab:f6:75:e6:ca:ea:02:5f:60:
        2f:64:0e:ce:c7:03:2d:4c:8b:19:2c:e8:cf:1a:b0:a0:cd:67:
        f2:99:6f:a0:1a:aa:a5:81:e2:54:80:f4:02:86:3e:06:40:2b:
        3c:dc:1c:83:d8:f5:a2:60:36:f8:20:41:42:92:61:00:a0:de:
        e9:7b:84:61:a8:dd:a6:23:d0:95:ad:0e:78:3a:51:9e:e8:d2:
        10:68:e6:f3:4b:f5:99:80:f2:26:16:18:4b:74:70:c7:65:d5:
        58:27:e1:db:60:9c:64:a6:c8:8e:86:6b:77:40:9c:b9:91:1c:
        2c:08:d0:64:13:88:cd:9c:c4:f2:90:e8:32:23:c5:8a:8a:b0:
        17:e0:a5:0b:0a:19:ca:2b:0f:89:67:fc:3f:83:1d:1e:0b:03:
        2d:34:b5:c2:78:3d:2e:d7:a8:d1:0b:2a:8f:47:7a:4b:91:df:
        9d:13:84:89:b3:8f:72:6f:7e:86:1a:5c:1d:21:b0:ae:c0:7c:
        5d:fc:0f:86:63:89:e1:3a:3f:32:25:5a:3f:09:29:4d:2a:48:
        1b:2c:5a:e8:44:c9:3c:d4:cb:02:4b:52:c6:1c:41:73:ec:0f:
        76:f8:ca:a2:18:e1:39:09:c2:aa:3e:5c:3c:c8:50:03:b1:03:
        80:fb:71:a3:32:9e:02:5b
-----BEGIN CERTIFICATE-----
MIIFXTCCA0WgAwIBAgIBADANBgkqhkiG9w0BAQsFADCBvDELMAkGA1UEBhMCRlIx
DzANBgNVBAgMBkZyYW5jZTERMA8GA1UECgwIU3lzdGVyZWwxRTBDBgNVBAMMPFMy
T1BDIERlbW8gQ2VydGlmaWNhdGUgQXV0aG9yaXR5IGZvciBYNTA5SWRlbnRpdHlU
b2tlbiBUZXN0czEoMCYGCSqGSIb3DQEJARYZczJvcGMtc3VwcG9ydEBzeXN0ZXJl
bC5mcjEYMBYGA1UEBwwPQWl4LWVuLVByb3ZlbmNlMB4XDTI1MDEyMjE1MzUyNVoX
DTM1MDEyMDE1MzUyNVowgYgxCzAJBgNVBAYTAkZSMQ8wDQYDVQQIDAZGcmFuY2Ux
GDAWBgNVBAcMD0FpeC1lbi1Qcm92ZW5jZTERMA8GA1UECgwIU3lzdGVyZWwxOzA5
BgNVBAMMMlMyT1BDIERlbW8gQ2VydGlmaWNhdGUgZm9yIFg1MDlJZGVudGl0eVRv
a2VuIFRlc3RzMIIBIjANBgkqhkiG9w0BAQEFAAOCAQ8AMIIBCgKCAQEAv/MrmIDY
mJPZOJbRdPVKzqtsG7zGsWZD3hN9KW7MP+zJEAZtO6kPfGsH4KuQaFRgo5fHVY/y
3AQwN4RwjsxKPzuISIknk9O6ZUPDGM+21TCqMIOEonNiuf4GZ3RXZUyk76xJnkGR
FauQOSmUZSmr2dYLtJnpdkyKS3RIho6ZEV2R/IpdsvBCST/vkwf70VqjQ3iZGSGb
D8YfP27JpEQJS8G6QRq/sOF99IMseWViv8ZPFB60VKdv0IjGA530qIe55jb/cI2i
f+p9g6qa++yYOA1QVi5OMkuMducuKA/s5JnNpfRHciYGgKjWEV1leKqx8ium2EoA
5jiZC67AkIJwoQIDAQABo4GbMIGYMB0GA1UdDgQWBBTAWRYQzyOotm/YQKGBHCJd
8S0B1zAfBgNVHSMEGDAWgBSbYpfHc7jYX/HLAwo45VC9m0UEgTALBgNVHQ8EBAMC
BsAwEwYDVR0lBAwwCgYIKwYBBQUHAwIwCQYDVR0TBAIwADApBgNVHREEIjAghhN1
cm46UzJPUEM6bG9jYWxob3N0gglsb2NhbGhvc3QwDQYJKoZIhvcNAQELBQADggIB
AAsMlLD7DIhu6QvhV6Cj030GZT750LJuvPsKHyRPwYrSmpteVDppEU7SP4Y9BoVR
SxM1I1lxD9mQ47C9m0CQLw9vUyCVRIe/BSG0+2qcikrf7YU2liAbP19hHD1OcQpz
1C8qCNMVsQL+I7+XMfFyB1ILDRGxfBf/A9XdkibY1LFN0ziAn931PaY3GpBeRXsm
6BCiQNw5Gdaha9h3axi4kIi3Q6WHoHqeSGk6pRlTjUX7KIAD3tXe182R61qfS2Yt
RiVlc/hbtjaFvFsgMHivYL/cRhuBVTmShvsKnnzaaVYdWsPlY+WeknbDf5ad6Y60
R6YEZydeIWdcPDAezs7xdU+yBME65av2debK6gJfYC9kDs7HAy1Mixks6M8asKDN
Z/KZb6AaqqWB4lSA9AKGPgZAKzzcHIPY9aJgNvggQUKSYQCg3ul7hGGo3aYj0JWt
Dng6UZ7o0hBo5vNL9ZmA8iYWGEt0cMdl1Vgn4dtgnGSmyI6Ga3dAnLmRHCwI0GQT
iM2cxPKQ6DIjxYqKsBfgpQsKGcorD4ln/D+DHR4LAy00tcJ4PS7XqNELKo9HekuR
350ThImzj3JvfoYaXB0hsK7AfF38D4ZjieE6PzIlWj8JKU0qSBssWuhEyTzUywJL
UsYcQXPsD3b4yqIY4TkJwqo+XDzIUAOxA4D7caMyngJb
-----END CERTIFICATE-----
