Certificate:
    Data:
        Version: 3 (0x2)
        Serial Number: 250 (0xfa)
    Signature Algorithm: sha256WithRSAEncryption
        Issuer: C=FR, ST=France, O=Systerel, CN=S2OPC Century Certificate Authority for Tests/emailAddress=s2opc-support@systerel.fr
        Validity
            Not Before: Oct  4 15:48:11 2018 GMT
            Not After : Sep 10 15:48:11 2118 GMT
        Subject: C=FR, ST=France, O=Systerel, CN=S2OPC Century Certificate for Test Clients
        Subject Public Key Info:
            Public Key Algorithm: rsaEncryption
                Public-Key: (2048 bit)
                Modulus:
                    00:bb:6d:eb:26:19:2c:e7:56:fe:29:7a:ef:8e:86:
                    69:53:9d:56:80:8b:01:3f:55:0f:61:16:3f:4f:87:
                    9f:f1:8f:8e:da:83:81:39:02:af:d1:dd:5f:cf:a3:
                    46:eb:a7:ab:ce:1d:76:00:28:e2:06:5d:31:81:61:
                    9c:3d:1e:2b:61:e3:92:55:73:c3:61:42:6f:b2:d1:
                    ec:ef:de:b2:5b:60:58:5c:08:55:bb:a8:bc:b0:e2:
                    99:61:bf:21:86:41:69:d6:b9:e7:76:ce:5f:fa:94:
                    78:79:f0:08:ce:ef:5a:22:52:bd:6e:1e:da:4b:f9:
                    ed:d3:d2:b8:e7:34:bb:bc:0d:81:bf:2c:3b:2d:02:
                    90:2d:31:2a:27:8f:b5:8c:5b:52:1a:cd:9e:f6:6f:
                    60:57:47:61:b5:84:1a:8b:0c:e1:05:ba:d0:81:8f:
                    11:22:ca:97:16:15:e9:f3:f0:02:a9:8c:67:3d:a0:
                    e1:83:53:ca:c3:f2:05:70:6c:b9:70:fc:97:5a:5a:
                    38:1f:ec:d4:8c:6d:d9:fb:76:d2:67:a1:39:90:22:
                    00:d6:94:49:e7:ec:9f:24:1d:69:fb:2f:8b:fe:cc:
                    c5:0b:7d:2d:67:06:5b:6f:39:07:bb:ad:60:c5:e4:
                    fc:17:0c:99:b0:46:c7:4a:4e:7d:39:b2:87:4a:c4:
                    dd:e5
                Exponent: 65537 (0x10001)
        X509v3 extensions:
            X509v3 Subject Key Identifier: 
                64:E9:66:9E:14:04:F1:A7:24:30:0B:7A:33:A6:19:C4:C0:8E:D0:79
            X509v3 Authority Key Identifier: 
                keyid:7A:46:CB:D2:2F:30:A4:FF:67:29:13:39:3F:9C:02:BF:03:D0:72:82

            X509v3 Basic Constraints: critical
                CA:TRUE
            X509v3 Key Usage: 
                Certificate Sign, CRL Sign
            X509v3 Subject Alternative Name: 
                URI:urn:S2OPC:localhost, DNS:localhost
    Signature Algorithm: sha256WithRSAEncryption
         54:d7:b3:3b:9d:72:5f:1c:83:77:3d:63:b4:76:ea:e8:f7:7f:
         52:d6:fc:38:f4:97:6b:c7:03:4a:a9:a2:fe:99:c1:d1:32:a2:
         a9:b0:86:f4:ab:29:aa:de:0f:65:f1:98:81:57:e7:17:57:ab:
         a4:32:0b:3b:36:71:5d:f4:00:ae:ed:c4:46:fd:2c:26:89:63:
         e0:af:f0:71:47:6e:b9:4c:8c:04:b4:26:1f:50:1d:ea:06:93:
         09:36:67:ad:0b:80:22:c1:91:cd:bc:11:1a:04:f1:ec:02:70:
         26:7b:e4:12:be:c2:30:07:95:b0:ed:15:fb:c0:78:4d:11:79:
         04:8a:af:7f:62:f3:8f:ac:7e:53:80:98:22:6b:14:12:8c:08:
         f7:96:69:64:25:25:be:ed:ae:ed:05:01:5a:b9:fd:68:3a:6e:
         30:81:b4:dd:2b:00:af:4f:fe:78:37:85:0c:2e:1c:47:14:39:
         8f:b7:85:82:04:a7:c6:4b:b9:cd:77:93:1b:20:27:f2:f5:d5:
         f4:bf:d5:2f:b4:ed:63:d1:5e:fd:dd:a3:98:15:e1:88:25:a8:
         06:55:37:c6:a6:ec:bd:a4:54:c6:c9:4c:ab:24:09:f9:77:ba:
         38:1a:f8:47:5b:87:47:5e:e5:da:ba:11:16:da:8e:94:02:b0:
         e9:9a:2b:6d:99:2e:ab:0a:df:01:06:af:b5:5a:09:5b:78:29:
         fc:65:1f:c6:f7:e7:e3:5f:47:9f:90:4c:e9:ab:cb:3b:2f:0d:
         3d:b5:27:2d:bc:29:34:4c:80:35:25:cf:57:83:70:5d:5f:56:
         1d:b3:7e:44:32:50:b7:42:45:3a:29:5a:81:c0:f9:92:e0:13:
         4d:7c:b0:29:12:8d:c2:a1:d0:40:ed:b3:ba:b3:6f:68:b5:73:
         bf:e9:70:25:a4:95:a4:0d:6c:f5:24:0b:99:ae:aa:0c:9e:90:
         d3:63:9c:e1:cb:e1:92:0e:3a:99:0d:f2:2b:f8:c3:98:39:4a:
         b0:07:09:e1:52:fd:7d:fe:f7:3c:5c:98:fc:20:de:fe:7c:3b:
         13:db:6c:a6:66:40:d4:54:ce:a0:e8:d0:28:85:a9:5a:4d:c4:
         49:e5:1c:de:31:26:2c:a6:93:2e:0c:2c:d0:0b:91:11:d2:b1:
         72:de:b2:3d:fd:86:f9:66:15:68:b2:d0:74:47:18:6b:35:0a:
         bb:8b:be:16:b2:be:33:5b:b3:c6:60:6a:a6:ef:bc:6e:ed:eb:
         d6:b6:a0:38:48:02:57:04:db:2a:7f:e1:c9:15:8b:55:86:a6:
         e0:95:49:ba:aa:69:f7:22:b3:f4:97:91:aa:0c:8e:27:ea:f7:
         14:5f:b0:83:05:1b:5a:88
-----BEGIN CERTIFICATE-----
MIIFBTCCAu2gAwIBAgICAPowDQYJKoZIhvcNAQELBQAwgZMxCzAJBgNVBAYTAkZS
MQ8wDQYDVQQIDAZGcmFuY2UxETAPBgNVBAoMCFN5c3RlcmVsMTYwNAYDVQQDDC1T
Mk9QQyBDZW50dXJ5IENlcnRpZmljYXRlIEF1dGhvcml0eSBmb3IgVGVzdHMxKDAm
BgkqhkiG9w0BCQEWGXMyb3BjLXN1cHBvcnRAc3lzdGVyZWwuZnIwIBcNMTgxMDA0
MTU0ODExWhgPMjExODA5MTAxNTQ4MTFaMGYxCzAJBgNVBAYTAkZSMQ8wDQYDVQQI
DAZGcmFuY2UxETAPBgNVBAoMCFN5c3RlcmVsMTMwMQYDVQQDDCpTMk9QQyBDZW50
dXJ5IENlcnRpZmljYXRlIGZvciBUZXN0IENsaWVudHMwggEiMA0GCSqGSIb3DQEB
AQUAA4IBDwAwggEKAoIBAQC7besmGSznVv4peu+OhmlTnVaAiwE/VQ9hFj9Ph5/x
j47ag4E5Aq/R3V/Po0brp6vOHXYAKOIGXTGBYZw9Hith45JVc8NhQm+y0ezv3rJb
YFhcCFW7qLyw4plhvyGGQWnWued2zl/6lHh58AjO71oiUr1uHtpL+e3T0rjnNLu8
DYG/LDstApAtMSonj7WMW1IazZ72b2BXR2G1hBqLDOEFutCBjxEiypcWFenz8AKp
jGc9oOGDU8rD8gVwbLlw/JdaWjgf7NSMbdn7dtJnoTmQIgDWlEnn7J8kHWn7L4v+
zMULfS1nBltvOQe7rWDF5PwXDJmwRsdKTn05sodKxN3lAgMBAAGjgYwwgYkwHQYD
VR0OBBYEFGTpZp4UBPGnJDALejOmGcTAjtB5MB8GA1UdIwQYMBaAFHpGy9IvMKT/
ZykTOT+cAr8D0HKCMA8GA1UdEwEB/wQFMAMBAf8wCwYDVR0PBAQDAgEGMCkGA1Ud
EQQiMCCGE3VybjpTMk9QQzpsb2NhbGhvc3SCCWxvY2FsaG9zdDANBgkqhkiG9w0B
AQsFAAOCAgEAVNezO51yXxyDdz1jtHbq6Pd/Utb8OPSXa8cDSqmi/pnB0TKiqbCG
9Kspqt4PZfGYgVfnF1erpDILOzZxXfQAru3ERv0sJolj4K/wcUduuUyMBLQmH1Ad
6gaTCTZnrQuAIsGRzbwRGgTx7AJwJnvkEr7CMAeVsO0V+8B4TRF5BIqvf2Lzj6x+
U4CYImsUEowI95ZpZCUlvu2u7QUBWrn9aDpuMIG03SsAr0/+eDeFDC4cRxQ5j7eF
ggSnxku5zXeTGyAn8vXV9L/VL7TtY9Fe/d2jmBXhiCWoBlU3xqbsvaRUxslMqyQJ
+Xe6OBr4R1uHR17l2roRFtqOlAKw6ZorbZkuqwrfAQavtVoJW3gp/GUfxvfn419H
n5BM6avLOy8NPbUnLbwpNEyANSXPV4NwXV9WHbN+RDJQt0JFOilagcD5kuATTXyw
KRKNwqHQQO2zurNvaLVzv+lwJaSVpA1s9SQLma6qDJ6Q02Oc4cvhkg46mQ3yK/jD
mDlKsAcJ4VL9ff73PFyY/CDe/nw7E9tspmZA1FTOoOjQKIWpWk3ESeUc3jEmLKaT
Lgws0AuREdKxct6yPf2G+WYVaLLQdEcYazUKu4u+FrK+M1uzxmBqpu+8bu3r1rag
OEgCVwTbKn/hyRWLVYam4JVJuqpp9yKz9JeRqgyOJ+r3FF+wgwUbWog=
-----END CERTIFICATE-----
