Certificate:
    Data:
        Version: 3 (0x2)
        Serial Number: 5 (0x5)
    Signature Algorithm: sha256WithRSAEncryption
        Issuer: C=FR, ST=IDF, L=PARIS, O=INGOPCS, OU=INGOPCS, CN=INGOPCS CA/emailAddress=ingopcs@systerel.fr
        Validity
            Not Before: Nov  2 16:15:58 2017 GMT
            Not After : Nov  2 16:15:58 2018 GMT
        Subject: C=FR, ST=IDF, L=PARIS, O=INGOPCS, OU=INGOPCS, CN=INGOPCS CLIENT
        Subject Public Key Info:
            Public Key Algorithm: rsaEncryption
                Public-Key: (2048 bit)
                Modulus:
                    00:ef:5a:09:ea:13:fe:0a:32:5d:f4:23:39:02:68:
                    de:4e:ba:8f:41:a8:f1:46:dd:88:85:78:00:0b:83:
                    db:5b:7a:70:2f:2f:b0:13:bf:25:9f:4d:5f:04:5c:
                    38:bc:bc:23:61:c4:e8:5e:da:95:04:04:1d:ce:c3:
                    3d:17:fe:31:f9:05:c8:1d:12:23:6e:ba:21:57:47:
                    2c:5b:26:68:6b:72:aa:33:ea:ba:7b:b3:e8:e9:aa:
                    66:c2:99:62:36:eb:7c:5c:3e:88:1a:fc:dc:ae:38:
                    05:11:df:90:7f:a0:53:a8:a1:4a:c2:72:84:f5:be:
                    f5:13:a1:04:2e:6a:b6:53:49:b3:a6:17:a2:1a:04:
                    4c:11:8a:bc:96:50:1f:e0:23:c1:7f:e0:a3:e9:f4:
                    fb:85:7c:00:8f:a8:6d:7d:95:77:ef:9c:b7:29:b2:
                    78:77:0e:1b:ca:0b:0a:55:9c:68:56:79:a7:03:ee:
                    43:8b:10:53:e0:29:e9:01:a4:37:50:2a:e7:c4:88:
                    9b:23:04:74:0c:8d:9a:ef:62:c1:28:d1:f3:9e:d3:
                    d7:da:e1:05:e2:3d:f6:35:4f:f0:96:94:34:05:e6:
                    97:d8:c3:5e:f1:c7:f8:9c:21:f0:60:37:27:3f:ef:
                    17:ee:7d:37:fd:05:dd:87:0c:1a:f7:b3:d0:03:d8:
                    a8:89
                Exponent: 65537 (0x10001)
        X509v3 extensions:
            X509v3 Subject Key Identifier: 
                FA:8D:89:27:89:64:F0:C1:E5:A7:5E:8A:A1:9C:2E:DF:E4:6C:6F:48
            X509v3 Authority Key Identifier: 
                keyid:31:AE:8E:65:33:64:06:E4:37:9B:51:8F:C3:37:9D:CE:45:9B:B6:1F

            X509v3 Basic Constraints: critical
                CA:TRUE
            X509v3 Key Usage: 
                Certificate Sign, CRL Sign
            X509v3 Subject Alternative Name: 
                URI:urn:INGOPCS:localhost, DNS:localhost
            Netscape Comment: 
                OpenSSL Generated Certificate
    Signature Algorithm: sha256WithRSAEncryption
         84:5c:2e:d4:d6:fa:38:3d:e6:39:83:88:bb:2f:0b:9e:7b:e0:
         1b:19:7a:40:63:3b:df:fe:56:c6:df:dc:04:3b:d6:bf:09:17:
         6f:8b:0f:96:2a:36:36:1a:86:5b:42:cd:de:8e:59:96:da:78:
         6b:d5:da:d1:91:fb:98:e9:91:d8:cf:7d:49:e7:a3:ba:c0:e1:
         bd:b9:20:92:fd:19:46:68:f3:f9:3c:44:2a:b4:e6:12:89:5a:
         40:9d:ba:03:bb:ae:54:77:98:9c:a5:1e:21:01:27:db:6e:b9:
         e2:50:0b:e9:3b:fd:7f:8c:c1:42:c6:a6:b9:b9:84:d8:2e:c5:
         83:10:52:06:04:55:c9:e1:4e:34:14:ae:4e:29:c4:40:68:9d:
         0b:8a:c4:a3:b0:be:5d:7b:47:ea:ee:2b:c7:1a:52:e9:a3:88:
         d8:56:08:1e:f5:ed:d8:32:1c:6b:d5:e4:8d:68:8e:6e:0b:60:
         38:fe:96:f7:59:d0:c6:7e:6d:9a:66:af:a3:be:e9:21:33:a6:
         a6:4d:98:89:45:02:69:25:55:cb:73:73:c7:35:f6:b5:23:e5:
         38:0b:5b:9a:be:11:9b:69:2d:b8:e5:d1:3d:0f:54:c0:55:cc:
         7e:e0:b4:82:81:22:d8:b8:de:ae:f9:e6:a6:8a:f9:ca:38:39:
         a4:8c:af:85
-----BEGIN CERTIFICATE-----
MIIEKTCCAxGgAwIBAgIBBTANBgkqhkiG9w0BAQsFADCBiDELMAkGA1UEBhMCRlIx
DDAKBgNVBAgMA0lERjEOMAwGA1UEBwwFUEFSSVMxEDAOBgNVBAoMB0lOR09QQ1Mx
EDAOBgNVBAsMB0lOR09QQ1MxEzARBgNVBAMMCklOR09QQ1MgQ0ExIjAgBgkqhkiG
9w0BCQEWE2luZ29wY3NAc3lzdGVyZWwuZnIwHhcNMTcxMTAyMTYxNTU4WhcNMTgx
MTAyMTYxNTU4WjBoMQswCQYDVQQGEwJGUjEMMAoGA1UECAwDSURGMQ4wDAYDVQQH
DAVQQVJJUzEQMA4GA1UECgwHSU5HT1BDUzEQMA4GA1UECwwHSU5HT1BDUzEXMBUG
A1UEAwwOSU5HT1BDUyBDTElFTlQwggEiMA0GCSqGSIb3DQEBAQUAA4IBDwAwggEK
AoIBAQDvWgnqE/4KMl30IzkCaN5Ouo9BqPFG3YiFeAALg9tbenAvL7ATvyWfTV8E
XDi8vCNhxOhe2pUEBB3Owz0X/jH5BcgdEiNuuiFXRyxbJmhrcqoz6rp7s+jpqmbC
mWI263xcPoga/NyuOAUR35B/oFOooUrCcoT1vvUToQQuarZTSbOmF6IaBEwRiryW
UB/gI8F/4KPp9PuFfACPqG19lXfvnLcpsnh3DhvKCwpVnGhWeacD7kOLEFPgKekB
pDdQKufEiJsjBHQMjZrvYsEo0fOe09fa4QXiPfY1T/CWlDQF5pfYw17xx/icIfBg
Nyc/7xfufTf9Bd2HDBr3s9AD2KiJAgMBAAGjgbwwgbkwHQYDVR0OBBYEFPqNiSeJ
ZPDB5adeiqGcLt/kbG9IMB8GA1UdIwQYMBaAFDGujmUzZAbkN5tRj8M3nc5Fm7Yf
MA8GA1UdEwEB/wQFMAMBAf8wCwYDVR0PBAQDAgEGMCsGA1UdEQQkMCKGFXVybjpJ
TkdPUENTOmxvY2FsaG9zdIIJbG9jYWxob3N0MCwGCWCGSAGG+EIBDQQfFh1PcGVu
U1NMIEdlbmVyYXRlZCBDZXJ0aWZpY2F0ZTANBgkqhkiG9w0BAQsFAAOCAQEAhFwu
1Nb6OD3mOYOIuy8LnnvgGxl6QGM73/5Wxt/cBDvWvwkXb4sPlio2NhqGW0LN3o5Z
ltp4a9Xa0ZH7mOmR2M99SeejusDhvbkgkv0ZRmjz+TxEKrTmEolaQJ26A7uuVHeY
nKUeIQEn22654lAL6Tv9f4zBQsamubmE2C7FgxBSBgRVyeFONBSuTinEQGidC4rE
o7C+XXtH6u4rxxpS6aOI2FYIHvXt2DIca9XkjWiObgtgOP6W91nQxn5tmmavo77p
ITOmpk2YiUUCaSVVy3NzxzX2tSPlOAtbmr4Rm2ktuOXRPQ9UwFXMfuC0goEi2Lje
rvnmpor5yjg5pIyvhQ==
-----END CERTIFICATE-----
