Certificate:
    Data:
        Version: 3 (0x2)
        Serial Number: 251 (0xfb)
    Signature Algorithm: sha256WithRSAEncryption
        Issuer: C=FR, ST=France, O=Systerel, CN=S2OPC Century Certificate Authority for Tests/emailAddress=s2opc-support@systerel.fr
        Validity
            Not Before: Oct  4 15:48:13 2018 GMT
            Not After : Sep 10 15:48:13 2118 GMT
        Subject: C=FR, ST=France, O=Systerel, CN=S2OPC Century Certificate for Test Clients
        Subject Public Key Info:
            Public Key Algorithm: rsaEncryption
                Public-Key: (4096 bit)
                Modulus:
                    00:d5:5b:6a:16:7c:cb:47:5e:a4:82:8d:48:80:63:
                    eb:fb:6a:9e:1d:e4:32:62:85:ec:0f:ae:e9:b3:48:
                    99:97:11:01:25:41:1f:1d:63:ed:fb:cd:56:c7:76:
                    09:72:fb:6d:2b:47:39:a2:a8:8e:b7:c9:9b:b1:60:
                    d2:21:83:a0:97:18:0f:01:bf:76:44:cc:43:88:56:
                    47:d5:a3:be:4e:12:3b:06:88:9a:05:28:0b:92:76:
                    c3:14:86:79:cb:72:bd:7f:06:5a:50:71:2e:41:d4:
                    b6:65:81:6d:b9:1d:fc:6b:a3:dc:dc:a2:dd:e8:5c:
                    59:ba:44:ef:2c:4c:6f:3a:ac:b7:89:8b:24:60:05:
                    a5:5f:cf:36:d2:bc:04:77:c2:73:4e:03:bd:80:94:
                    f7:51:26:c5:6d:93:c2:7b:ed:17:34:51:fb:cb:b3:
                    11:d2:fe:fc:ed:f9:01:09:d0:c3:c9:c5:58:b3:db:
                    b2:d9:65:60:4a:00:71:3f:10:b6:f3:6a:4d:df:de:
                    c5:6b:c8:50:f6:28:8f:18:48:5f:ed:b0:ca:da:92:
                    e5:9d:12:5a:24:54:52:af:31:60:c6:0b:86:6b:70:
                    7f:99:23:75:35:7d:7a:4d:56:0b:ec:e0:83:d9:2d:
                    e0:7b:0b:a5:cb:f4:f4:90:b5:df:38:2a:f1:f8:73:
                    a3:20:ee:66:55:d8:17:a0:b1:49:cb:24:57:0a:ac:
                    0d:da:97:ca:53:e2:ca:fb:4c:6a:d9:22:a4:5f:39:
                    12:5c:81:81:ee:42:3d:ed:4f:7b:a8:a7:7a:fb:ae:
                    16:49:fd:8e:37:e2:f5:29:d2:a5:9f:08:e4:69:61:
                    05:2c:f7:9c:80:eb:15:52:c1:6f:00:17:13:72:8a:
                    da:d6:0b:f6:a2:ef:ef:99:2d:78:b8:99:0d:94:fa:
                    57:8e:08:a4:fa:fd:12:44:4b:ae:a1:23:4d:da:0b:
                    b3:b0:87:92:91:9b:4e:5d:7f:1b:5d:c3:3b:4b:e9:
                    11:1c:ba:a3:59:2a:95:ee:d8:6a:cf:50:2d:35:45:
                    72:68:79:81:c9:aa:09:2b:b1:0e:54:21:76:e4:ff:
                    4a:30:86:26:a9:a1:cf:ed:0f:57:14:bd:4b:9b:de:
                    7d:8c:41:4b:ef:d2:12:b6:f5:6e:6e:12:a6:38:f4:
                    01:8b:f1:8e:34:88:b6:21:26:3e:a6:cd:4c:98:04:
                    51:fb:0c:20:40:72:25:4e:ec:b5:05:34:f9:e8:9e:
                    70:ef:a9:0c:4a:6f:fe:b3:8a:f4:2b:22:b7:4b:0e:
                    21:9b:57:a7:33:2d:35:4e:03:ad:4b:e7:76:eb:78:
                    0a:93:53:9c:c6:a8:fa:1a:19:84:f4:ca:91:c1:19:
                    d1:cd:f9
                Exponent: 65537 (0x10001)
        X509v3 extensions:
            X509v3 Subject Key Identifier: 
                18:7E:85:E0:35:C8:C8:25:AD:5C:A8:67:68:6A:B3:39:50:3C:DD:19
            X509v3 Authority Key Identifier: 
                keyid:7A:46:CB:D2:2F:30:A4:FF:67:29:13:39:3F:9C:02:BF:03:D0:72:82

            X509v3 Basic Constraints: critical
                CA:TRUE
            X509v3 Key Usage: 
                Certificate Sign, CRL Sign
            X509v3 Subject Alternative Name: 
                URI:urn:S2OPC:localhost, DNS:localhost
    Signature Algorithm: sha256WithRSAEncryption
         75:09:e9:a3:cd:af:d8:19:23:ce:9c:a9:f9:ee:28:b1:cd:19:
         15:9f:d3:99:24:0b:2b:72:92:bb:e1:98:17:18:c9:7b:4b:22:
         38:52:6f:07:a5:b9:a8:ac:c3:07:23:82:52:25:66:8b:56:a9:
         e4:9d:89:08:e5:11:06:7a:12:c5:a7:e1:77:2b:0f:0b:2e:49:
         02:e9:05:7a:8e:c4:6d:d8:ba:6b:b5:51:fa:39:d2:0b:a1:5d:
         fa:c6:52:69:44:9a:a3:d6:9a:04:0a:10:3a:57:01:92:41:0c:
         97:85:46:a7:dc:20:04:e6:56:5c:eb:51:ee:30:ed:3a:af:03:
         ef:cc:f2:7f:d4:bb:b1:1f:68:c5:85:9e:29:08:1d:06:e4:b6:
         19:7b:ec:8a:99:21:51:e2:3e:f0:a3:7b:29:0d:c4:52:0d:6c:
         99:d7:b0:e6:c5:11:d3:72:ea:b0:78:ae:9a:01:2d:16:e1:6d:
         d9:b7:a0:f4:4a:21:be:06:04:f7:b7:9c:ff:df:fe:33:2c:8e:
         7a:64:00:37:f9:7c:d0:84:41:ae:4e:f2:f9:88:de:38:1a:16:
         c5:d2:e2:7d:07:6e:d3:32:4e:7a:f2:bb:97:2c:35:9d:17:57:
         15:9c:2a:90:f5:87:c6:f8:12:c1:a1:d7:86:e3:f7:23:02:0a:
         a3:af:ba:24:30:6f:73:59:a6:03:6e:ee:18:b6:79:f6:0a:aa:
         ee:57:c2:06:e5:21:f1:9b:fe:d9:3b:ed:6a:2d:e1:17:f3:73:
         04:22:f1:0c:dc:1b:2b:71:0e:5a:90:03:89:26:5a:b3:55:79:
         b0:24:a5:d2:de:9f:6f:5b:9c:c2:93:fc:37:66:c9:c4:0a:fd:
         22:d9:06:3e:a0:67:e8:ed:dc:e6:5b:f5:ea:cd:dc:39:82:68:
         13:14:e6:0f:a0:32:5b:fa:ed:82:17:6b:07:97:d4:08:e2:76:
         da:aa:2a:b3:ee:d5:6b:8b:16:64:6a:8a:40:0d:ab:8a:a7:34:
         91:fb:e9:e0:c8:90:f1:29:36:41:c5:da:84:3a:c9:d9:17:65:
         d8:fb:d0:a0:c8:c5:33:5c:3e:55:a4:5d:28:ae:05:ad:1f:6a:
         a8:c7:c9:4b:fd:0f:35:be:37:de:15:97:8a:60:08:5e:9c:41:
         05:0c:87:4b:5b:78:8e:ad:3c:56:d7:ab:3c:ec:02:13:4f:8c:
         69:4f:a1:e4:e3:44:0b:8c:2f:f0:fc:ce:61:32:c6:97:31:39:
         6a:2b:78:eb:ea:50:11:54:2c:cd:b3:53:3e:80:52:b4:05:de:
         5f:43:15:cc:87:9d:7f:fb:da:c1:74:3b:93:f9:a3:86:90:44:
         39:d8:35:24:ab:68:67:6a
-----BEGIN CERTIFICATE-----
MIIGBTCCA+2gAwIBAgICAPswDQYJKoZIhvcNAQELBQAwgZMxCzAJBgNVBAYTAkZS
MQ8wDQYDVQQIDAZGcmFuY2UxETAPBgNVBAoMCFN5c3RlcmVsMTYwNAYDVQQDDC1T
Mk9QQyBDZW50dXJ5IENlcnRpZmljYXRlIEF1dGhvcml0eSBmb3IgVGVzdHMxKDAm
BgkqhkiG9w0BCQEWGXMyb3BjLXN1cHBvcnRAc3lzdGVyZWwuZnIwIBcNMTgxMDA0
MTU0ODEzWhgPMjExODA5MTAxNTQ4MTNaMGYxCzAJBgNVBAYTAkZSMQ8wDQYDVQQI
DAZGcmFuY2UxETAPBgNVBAoMCFN5c3RlcmVsMTMwMQYDVQQDDCpTMk9QQyBDZW50
dXJ5IENlcnRpZmljYXRlIGZvciBUZXN0IENsaWVudHMwggIiMA0GCSqGSIb3DQEB
AQUAA4ICDwAwggIKAoICAQDVW2oWfMtHXqSCjUiAY+v7ap4d5DJihewPrumzSJmX
EQElQR8dY+37zVbHdgly+20rRzmiqI63yZuxYNIhg6CXGA8Bv3ZEzEOIVkfVo75O
EjsGiJoFKAuSdsMUhnnLcr1/BlpQcS5B1LZlgW25Hfxro9zcot3oXFm6RO8sTG86
rLeJiyRgBaVfzzbSvAR3wnNOA72AlPdRJsVtk8J77Rc0UfvLsxHS/vzt+QEJ0MPJ
xViz27LZZWBKAHE/ELbzak3f3sVryFD2KI8YSF/tsMrakuWdElokVFKvMWDGC4Zr
cH+ZI3U1fXpNVgvs4IPZLeB7C6XL9PSQtd84KvH4c6Mg7mZV2BegsUnLJFcKrA3a
l8pT4sr7TGrZIqRfORJcgYHuQj3tT3uop3r7rhZJ/Y434vUp0qWfCORpYQUs95yA
6xVSwW8AFxNyitrWC/ai7++ZLXi4mQ2U+leOCKT6/RJES66hI03aC7Owh5KRm05d
fxtdwztL6REcuqNZKpXu2GrPUC01RXJoeYHJqgkrsQ5UIXbk/0owhiapoc/tD1cU
vUub3n2MQUvv0hK29W5uEqY49AGL8Y40iLYhJj6mzUyYBFH7DCBAciVO7LUFNPno
nnDvqQxKb/6zivQrIrdLDiGbV6czLTVOA61L53breAqTU5zGqPoaGYT0ypHBGdHN
+QIDAQABo4GMMIGJMB0GA1UdDgQWBBQYfoXgNcjIJa1cqGdoarM5UDzdGTAfBgNV
HSMEGDAWgBR6RsvSLzCk/2cpEzk/nAK/A9BygjAPBgNVHRMBAf8EBTADAQH/MAsG
A1UdDwQEAwIBBjApBgNVHREEIjAghhN1cm46UzJPUEM6bG9jYWxob3N0gglsb2Nh
bGhvc3QwDQYJKoZIhvcNAQELBQADggIBAHUJ6aPNr9gZI86cqfnuKLHNGRWf05kk
CytykrvhmBcYyXtLIjhSbweluaiswwcjglIlZotWqeSdiQjlEQZ6EsWn4XcrDwsu
SQLpBXqOxG3Yumu1Ufo50guhXfrGUmlEmqPWmgQKEDpXAZJBDJeFRqfcIATmVlzr
Ue4w7TqvA+/M8n/Uu7EfaMWFnikIHQbkthl77IqZIVHiPvCjeykNxFINbJnXsObF
EdNy6rB4rpoBLRbhbdm3oPRKIb4GBPe3nP/f/jMsjnpkADf5fNCEQa5O8vmI3jga
FsXS4n0HbtMyTnryu5csNZ0XVxWcKpD1h8b4EsGh14bj9yMCCqOvuiQwb3NZpgNu
7hi2efYKqu5XwgblIfGb/tk77Wot4RfzcwQi8QzcGytxDlqQA4kmWrNVebAkpdLe
n29bnMKT/DdmycQK/SLZBj6gZ+jt3OZb9erN3DmCaBMU5g+gMlv67YIXaweX1Aji
dtqqKrPu1WuLFmRqikANq4qnNJH76eDIkPEpNkHF2oQ6ydkXZdj70KDIxTNcPlWk
XSiuBa0faqjHyUv9DzW+N94Vl4pgCF6cQQUMh0tbeI6tPFbXqzzsAhNPjGlPoeTj
RAuML/D8zmEyxpcxOWoreOvqUBFULM2zUz6AUrQF3l9DFcyHnX/72sF0O5P5o4aQ
RDnYNSSraGdq
-----END CERTIFICATE-----
