Certificate:
    Data:
        Version: 3 (0x2)
        Serial Number: 9 (0x9)
    Signature Algorithm: sha256WithRSAEncryption
        Issuer: C=FR, ST=IDF, L=PARIS, O=S2OPC, OU=S2OPC, CN=S2OPC CA/emailAddress=s2opc-support@systerel.fr
        Validity
            Not Before: Sep 26 15:07:19 2018 GMT
            Not After : Sep 15 15:07:19 2020 GMT
        Subject: C=FR, ST=IDF, L=PARIS, O=S2OPC, OU=S2OPC, CN=S2OPC Test Client
        Subject Public Key Info:
            Public Key Algorithm: rsaEncryption
                Public-Key: (2048 bit)
                Modulus:
                    00:ef:5a:09:ea:13:fe:0a:32:5d:f4:23:39:02:68:
                    de:4e:ba:8f:41:a8:f1:46:dd:88:85:78:00:0b:83:
                    db:5b:7a:70:2f:2f:b0:13:bf:25:9f:4d:5f:04:5c:
                    38:bc:bc:23:61:c4:e8:5e:da:95:04:04:1d:ce:c3:
                    3d:17:fe:31:f9:05:c8:1d:12:23:6e:ba:21:57:47:
                    2c:5b:26:68:6b:72:aa:33:ea:ba:7b:b3:e8:e9:aa:
                    66:c2:99:62:36:eb:7c:5c:3e:88:1a:fc:dc:ae:38:
                    05:11:df:90:7f:a0:53:a8:a1:4a:c2:72:84:f5:be:
                    f5:13:a1:04:2e:6a:b6:53:49:b3:a6:17:a2:1a:04:
                    4c:11:8a:bc:96:50:1f:e0:23:c1:7f:e0:a3:e9:f4:
                    fb:85:7c:00:8f:a8:6d:7d:95:77:ef:9c:b7:29:b2:
                    78:77:0e:1b:ca:0b:0a:55:9c:68:56:79:a7:03:ee:
                    43:8b:10:53:e0:29:e9:01:a4:37:50:2a:e7:c4:88:
                    9b:23:04:74:0c:8d:9a:ef:62:c1:28:d1:f3:9e:d3:
                    d7:da:e1:05:e2:3d:f6:35:4f:f0:96:94:34:05:e6:
                    97:d8:c3:5e:f1:c7:f8:9c:21:f0:60:37:27:3f:ef:
                    17:ee:7d:37:fd:05:dd:87:0c:1a:f7:b3:d0:03:d8:
                    a8:89
                Exponent: 65537 (0x10001)
        X509v3 extensions:
            X509v3 Subject Key Identifier: 
                FA:8D:89:27:89:64:F0:C1:E5:A7:5E:8A:A1:9C:2E:DF:E4:6C:6F:48
            X509v3 Authority Key Identifier: 
                keyid:31:AE:8E:65:33:64:06:E4:37:9B:51:8F:C3:37:9D:CE:45:9B:B6:1F

            X509v3 Basic Constraints: critical
                CA:TRUE
            X509v3 Key Usage: 
                Certificate Sign, CRL Sign
            X509v3 Subject Alternative Name: 
                URI:urn:S2OPC:localhost, DNS:localhost
            Netscape Comment: 
                OpenSSL Generated Certificate
    Signature Algorithm: sha256WithRSAEncryption
         1d:b8:54:d6:d0:58:07:cc:b5:74:ef:e7:9f:22:7d:5d:b9:cd:
         71:dc:b6:7d:7c:82:0c:65:27:ee:7a:1a:6c:72:95:7c:df:85:
         82:3d:8a:37:ee:6a:2c:cb:a5:6e:8a:aa:d4:81:6e:ee:e1:0f:
         29:37:01:b6:1b:99:c1:12:9a:e1:35:56:c9:16:9c:64:5d:d3:
         e9:94:40:a8:3f:11:2d:6e:e6:89:e9:14:43:47:2e:c5:bd:b1:
         e7:1d:62:c0:3f:66:05:66:c7:30:9d:ac:d6:a7:fe:a9:44:4c:
         25:d4:67:14:25:37:38:5e:09:23:1e:1d:b5:82:78:20:2f:09:
         61:39:e4:fe:68:1b:68:83:f7:62:2f:ea:11:73:97:b9:68:b9:
         c6:5a:1e:19:84:38:94:52:e1:3e:91:53:c1:a7:e3:d6:bb:82:
         1d:8f:a1:ad:ef:6a:7f:2f:72:9c:fe:c1:44:d3:1f:05:72:56:
         47:94:71:15:8b:a2:40:6c:bc:75:b4:a1:d4:b0:93:c6:14:da:
         b7:a8:3e:f7:ca:a1:de:5e:01:5b:b9:0b:70:1b:41:e9:d0:02:
         21:c1:34:86:54:4d:81:73:bc:57:2a:29:d4:c2:6b:6b:7a:9b:
         5e:3c:98:a9:79:53:6d:48:b7:21:01:fb:d4:f0:03:b6:43:43:
         37:b9:d1:a7
-----BEGIN CERTIFICATE-----
MIIEJjCCAw6gAwIBAgIBCTANBgkqhkiG9w0BAQsFADCBiDELMAkGA1UEBhMCRlIx
DDAKBgNVBAgMA0lERjEOMAwGA1UEBwwFUEFSSVMxDjAMBgNVBAoMBVMyT1BDMQ4w
DAYDVQQLDAVTMk9QQzERMA8GA1UEAwwIUzJPUEMgQ0ExKDAmBgkqhkiG9w0BCQEW
GXMyb3BjLXN1cHBvcnRAc3lzdGVyZWwuZnIwHhcNMTgwOTI2MTUwNzE5WhcNMjAw
OTE1MTUwNzE5WjBnMQswCQYDVQQGEwJGUjEMMAoGA1UECAwDSURGMQ4wDAYDVQQH
DAVQQVJJUzEOMAwGA1UECgwFUzJPUEMxDjAMBgNVBAsMBVMyT1BDMRowGAYDVQQD
DBFTMk9QQyBUZXN0IENsaWVudDCCASIwDQYJKoZIhvcNAQEBBQADggEPADCCAQoC
ggEBAO9aCeoT/goyXfQjOQJo3k66j0Go8UbdiIV4AAuD21t6cC8vsBO/JZ9NXwRc
OLy8I2HE6F7alQQEHc7DPRf+MfkFyB0SI266IVdHLFsmaGtyqjPqunuz6OmqZsKZ
YjbrfFw+iBr83K44BRHfkH+gU6ihSsJyhPW+9ROhBC5qtlNJs6YXohoETBGKvJZQ
H+AjwX/go+n0+4V8AI+obX2Vd++ctymyeHcOG8oLClWcaFZ5pwPuQ4sQU+Ap6QGk
N1Aq58SImyMEdAyNmu9iwSjR857T19rhBeI99jVP8JaUNAXml9jDXvHH+Jwh8GA3
Jz/vF+59N/0F3YcMGvez0APYqIkCAwEAAaOBujCBtzAdBgNVHQ4EFgQU+o2JJ4lk
8MHlp16KoZwu3+Rsb0gwHwYDVR0jBBgwFoAUMa6OZTNkBuQ3m1GPwzedzkWbth8w
DwYDVR0TAQH/BAUwAwEB/zALBgNVHQ8EBAMCAQYwKQYDVR0RBCIwIIYTdXJuOlMy
T1BDOmxvY2FsaG9zdIIJbG9jYWxob3N0MCwGCWCGSAGG+EIBDQQfFh1PcGVuU1NM
IEdlbmVyYXRlZCBDZXJ0aWZpY2F0ZTANBgkqhkiG9w0BAQsFAAOCAQEAHbhU1tBY
B8y1dO/nnyJ9XbnNcdy2fXyCDGUn7noabHKVfN+Fgj2KN+5qLMulboqq1IFu7uEP
KTcBthuZwRKa4TVWyRacZF3T6ZRAqD8RLW7miekUQ0cuxb2x5x1iwD9mBWbHMJ2s
1qf+qURMJdRnFCU3OF4JIx4dtYJ4IC8JYTnk/mgbaIP3Yi/qEXOXuWi5xloeGYQ4
lFLhPpFTwafj1ruCHY+hre9qfy9ynP7BRNMfBXJWR5RxFYuiQGy8dbSh1LCTxhTa
t6g+98qh3l4BW7kLcBtB6dACIcE0hlRNgXO8Vyop1MJra3qbXjyYqXlTbUi3IQH7
1PADtkNDN7nRpw==
-----END CERTIFICATE-----
