Certificate:
    Data:
        Version: 3 (0x2)
        Serial Number: 10 (0xa)
    Signature Algorithm: sha256WithRSAEncryption
        Issuer: C=FR, ST=IDF, L=PARIS, O=S2OPC, OU=S2OPC, CN=S2OPC CA/emailAddress=s2opc-support@systerel.fr
        Validity
            Not Before: Sep 26 15:07:42 2018 GMT
            Not After : Sep 15 15:07:42 2020 GMT
        Subject: C=FR, ST=IDF, L=PARIS, O=S2OPC, OU=S2OPC, CN=S2OPC Test Client
        Subject Public Key Info:
            Public Key Algorithm: rsaEncryption
                Public-Key: (4096 bit)
                Modulus:
                    00:cb:ca:eb:e8:56:24:a0:d3:18:d4:f0:8e:ed:6d:
                    ce:e5:12:c1:f7:70:9e:b9:25:9c:c7:a5:70:1e:c3:
                    9f:a6:6e:f3:84:88:ff:ab:33:c9:e3:9d:1b:90:82:
                    73:be:ec:f1:b4:d1:27:cd:72:c5:7d:2f:00:8c:7a:
                    75:29:05:cc:8d:7d:61:2a:ae:40:fc:be:fc:36:2b:
                    7b:cc:e2:c6:e0:04:73:2c:b2:75:8c:2b:a2:82:45:
                    c6:2c:73:f8:56:f2:10:63:79:dc:19:ff:8f:62:6c:
                    aa:ad:d9:25:0a:91:1f:56:74:2b:fd:c2:9e:c6:3a:
                    66:77:dd:eb:90:7a:58:5f:06:14:48:fc:de:bc:c3:
                    bf:86:74:16:49:50:40:db:de:c8:24:e0:bf:89:0b:
                    39:e1:39:06:f4:d4:63:72:7a:a5:86:14:f6:48:ac:
                    90:89:d1:d8:ed:e4:fe:f8:a3:bd:98:e7:b0:60:a3:
                    3f:5c:72:05:18:79:66:01:d3:bc:0d:af:d1:b1:d1:
                    a5:33:f9:1e:17:ee:96:73:75:5f:4e:a5:50:59:f4:
                    cb:56:03:e1:6c:fc:5c:dc:97:29:c5:3a:22:a1:45:
                    4f:7d:60:64:0c:34:00:bc:80:b3:1b:ed:30:74:ae:
                    c8:76:00:bb:86:ec:35:89:1c:6d:90:74:23:a8:e1:
                    10:f6:ae:07:d3:00:58:83:3a:d0:be:76:44:ba:bf:
                    bc:ca:d8:78:83:dd:a9:de:f2:66:18:dd:e9:99:a7:
                    a1:cf:df:e8:d9:f5:d7:6f:d2:94:3a:96:bd:59:34:
                    29:76:53:d4:fd:17:6f:bd:a0:09:8a:2d:3e:cf:c5:
                    c4:44:d9:50:9f:b6:5a:ca:b7:79:77:d2:37:89:9e:
                    31:29:78:51:4d:55:bd:4a:6a:25:15:8c:ce:94:77:
                    ae:a7:a8:81:2e:c4:f0:ef:4f:a4:41:01:14:f4:05:
                    fe:3c:1e:4f:c3:33:08:d3:47:17:7c:1d:07:37:dd:
                    bd:35:15:53:25:dc:7b:65:b7:99:f7:e3:20:e0:0e:
                    8c:c9:7e:fe:16:67:30:31:d4:e5:cf:c9:cd:ed:18:
                    50:02:95:89:94:cf:11:4b:e4:5d:d5:95:c0:4d:cc:
                    bb:b0:0c:19:78:aa:b2:df:ba:b1:ad:25:7b:ca:d7:
                    08:c3:3d:04:c5:1a:37:12:aa:d9:45:f4:e5:7d:f3:
                    0f:6e:ee:4b:1f:43:dc:ff:95:82:67:e4:50:ad:17:
                    68:c9:dd:ab:a3:cd:c6:42:03:f3:8f:38:ce:08:b9:
                    cb:12:35:d4:d2:47:49:c7:ae:bf:6a:0a:ce:de:11:
                    30:76:d8:4d:44:aa:6b:ce:f7:68:94:72:31:6a:75:
                    86:60:89
                Exponent: 65537 (0x10001)
        X509v3 extensions:
            X509v3 Subject Key Identifier: 
                0E:DE:9B:FA:AD:01:6E:0C:75:8B:74:4A:BC:B8:F3:6A:AF:5D:92:A2
            X509v3 Authority Key Identifier: 
                keyid:31:AE:8E:65:33:64:06:E4:37:9B:51:8F:C3:37:9D:CE:45:9B:B6:1F

            X509v3 Basic Constraints: critical
                CA:TRUE
            X509v3 Key Usage: 
                Certificate Sign, CRL Sign
            X509v3 Subject Alternative Name: 
                URI:urn:S2OPC:localhost, DNS:localhost
            Netscape Comment: 
                OpenSSL Generated Certificate
    Signature Algorithm: sha256WithRSAEncryption
         93:c4:3b:36:ae:62:ad:a4:69:5a:70:1e:b3:46:c8:d1:9b:f4:
         91:f6:79:ab:62:cd:3c:9f:18:d2:89:be:5d:05:94:5b:73:01:
         5f:50:06:46:b3:7e:36:2f:9e:33:63:b7:e2:4e:5a:4a:67:e8:
         a6:10:a4:40:e1:e4:c3:9d:26:1e:9f:1d:c1:59:ef:be:16:3c:
         f6:68:28:36:5c:09:7f:a4:c8:7d:33:93:7d:a1:e5:33:03:f1:
         1b:1c:e6:46:21:17:42:a7:7b:69:60:bb:ed:9b:d0:fc:9f:b1:
         a8:e1:61:af:ec:62:1f:f6:9b:d1:1d:e0:bd:6a:6c:26:fa:b1:
         ae:b3:e7:a6:db:dd:48:f8:b1:bd:78:91:19:b5:f7:3b:9d:e8:
         d4:9a:b4:6c:32:d2:a8:b8:c3:49:78:96:16:10:7a:33:2b:50:
         aa:3f:41:09:78:cc:b4:3a:09:5d:3b:38:50:9b:35:ec:b9:db:
         e2:22:b0:ef:05:b8:1f:9a:03:af:94:14:a5:e4:06:46:59:f5:
         fb:37:2c:46:f0:cf:f2:f9:ef:2d:d2:fd:38:17:bb:a3:f1:87:
         a8:cb:14:24:62:ee:df:27:cf:23:f2:2a:7f:a8:83:bc:45:b1:
         40:f7:0b:de:dc:79:ac:23:de:07:78:b3:13:ea:b7:db:05:ab:
         9f:7d:5e:64
-----BEGIN CERTIFICATE-----
MIIFJjCCBA6gAwIBAgIBCjANBgkqhkiG9w0BAQsFADCBiDELMAkGA1UEBhMCRlIx
DDAKBgNVBAgMA0lERjEOMAwGA1UEBwwFUEFSSVMxDjAMBgNVBAoMBVMyT1BDMQ4w
DAYDVQQLDAVTMk9QQzERMA8GA1UEAwwIUzJPUEMgQ0ExKDAmBgkqhkiG9w0BCQEW
GXMyb3BjLXN1cHBvcnRAc3lzdGVyZWwuZnIwHhcNMTgwOTI2MTUwNzQyWhcNMjAw
OTE1MTUwNzQyWjBnMQswCQYDVQQGEwJGUjEMMAoGA1UECAwDSURGMQ4wDAYDVQQH
DAVQQVJJUzEOMAwGA1UECgwFUzJPUEMxDjAMBgNVBAsMBVMyT1BDMRowGAYDVQQD
DBFTMk9QQyBUZXN0IENsaWVudDCCAiIwDQYJKoZIhvcNAQEBBQADggIPADCCAgoC
ggIBAMvK6+hWJKDTGNTwju1tzuUSwfdwnrklnMelcB7Dn6Zu84SI/6szyeOdG5CC
c77s8bTRJ81yxX0vAIx6dSkFzI19YSquQPy+/DYre8zixuAEcyyydYwrooJFxixz
+FbyEGN53Bn/j2Jsqq3ZJQqRH1Z0K/3CnsY6Znfd65B6WF8GFEj83rzDv4Z0FklQ
QNveyCTgv4kLOeE5BvTUY3J6pYYU9kiskInR2O3k/vijvZjnsGCjP1xyBRh5ZgHT
vA2v0bHRpTP5HhfulnN1X06lUFn0y1YD4Wz8XNyXKcU6IqFFT31gZAw0ALyAsxvt
MHSuyHYAu4bsNYkcbZB0I6jhEPauB9MAWIM60L52RLq/vMrYeIPdqd7yZhjd6Zmn
oc/f6Nn112/SlDqWvVk0KXZT1P0Xb72gCYotPs/FxETZUJ+2Wsq3eXfSN4meMSl4
UU1VvUpqJRWMzpR3rqeogS7E8O9PpEEBFPQF/jweT8MzCNNHF3wdBzfdvTUVUyXc
e2W3mffjIOAOjMl+/hZnMDHU5c/Jze0YUAKViZTPEUvkXdWVwE3Mu7AMGXiqst+6
sa0le8rXCMM9BMUaNxKq2UX05X3zD27uSx9D3P+VgmfkUK0XaMndq6PNxkID8484
zgi5yxI11NJHSceuv2oKzt4RMHbYTUSqa873aJRyMWp1hmCJAgMBAAGjgbowgbcw
HQYDVR0OBBYEFA7em/qtAW4MdYt0Sry482qvXZKiMB8GA1UdIwQYMBaAFDGujmUz
ZAbkN5tRj8M3nc5Fm7YfMA8GA1UdEwEB/wQFMAMBAf8wCwYDVR0PBAQDAgEGMCkG
A1UdEQQiMCCGE3VybjpTMk9QQzpsb2NhbGhvc3SCCWxvY2FsaG9zdDAsBglghkgB
hvhCAQ0EHxYdT3BlblNTTCBHZW5lcmF0ZWQgQ2VydGlmaWNhdGUwDQYJKoZIhvcN
AQELBQADggEBAJPEOzauYq2kaVpwHrNGyNGb9JH2eatizTyfGNKJvl0FlFtzAV9Q
BkazfjYvnjNjt+JOWkpn6KYQpEDh5MOdJh6fHcFZ774WPPZoKDZcCX+kyH0zk32h
5TMD8Rsc5kYhF0Kne2lgu+2b0PyfsajhYa/sYh/2m9Ed4L1qbCb6sa6z56bb3Uj4
sb14kRm19zud6NSatGwy0qi4w0l4lhYQejMrUKo/QQl4zLQ6CV07OFCbNey52+Ii
sO8FuB+aA6+UFKXkBkZZ9fs3LEbwz/L57y3S/TgXu6Pxh6jLFCRi7t8nzyPyKn+o
g7xFsUD3C97ceawj3gd4sxPqt9sFq599XmQ=
-----END CERTIFICATE-----
