Certificate:
    Data:
        Version: 3 (0x2)
        Serial Number: 89 (0x59)
    Signature Algorithm: sha256WithRSAEncryption
        Issuer: C=FR, ST=France, O=Systerel, CN=S2OPC Century Certificate Authority for Tests/emailAddress=s2opc-support@systerel.fr
        Validity
            Not Before: Nov 19 16:06:29 2019 GMT
            Not After : Oct 26 16:06:29 2119 GMT
        Subject: C=FR, ST=France, O=Systerel, CN=S2OPC Century Certificate for Test Clients
        Subject Public Key Info:
            Public Key Algorithm: rsaEncryption
                Public-Key: (2048 bit)
                Modulus:
                    00:bb:6d:eb:26:19:2c:e7:56:fe:29:7a:ef:8e:86:
                    69:53:9d:56:80:8b:01:3f:55:0f:61:16:3f:4f:87:
                    9f:f1:8f:8e:da:83:81:39:02:af:d1:dd:5f:cf:a3:
                    46:eb:a7:ab:ce:1d:76:00:28:e2:06:5d:31:81:61:
                    9c:3d:1e:2b:61:e3:92:55:73:c3:61:42:6f:b2:d1:
                    ec:ef:de:b2:5b:60:58:5c:08:55:bb:a8:bc:b0:e2:
                    99:61:bf:21:86:41:69:d6:b9:e7:76:ce:5f:fa:94:
                    78:79:f0:08:ce:ef:5a:22:52:bd:6e:1e:da:4b:f9:
                    ed:d3:d2:b8:e7:34:bb:bc:0d:81:bf:2c:3b:2d:02:
                    90:2d:31:2a:27:8f:b5:8c:5b:52:1a:cd:9e:f6:6f:
                    60:57:47:61:b5:84:1a:8b:0c:e1:05:ba:d0:81:8f:
                    11:22:ca:97:16:15:e9:f3:f0:02:a9:8c:67:3d:a0:
                    e1:83:53:ca:c3:f2:05:70:6c:b9:70:fc:97:5a:5a:
                    38:1f:ec:d4:8c:6d:d9:fb:76:d2:67:a1:39:90:22:
                    00:d6:94:49:e7:ec:9f:24:1d:69:fb:2f:8b:fe:cc:
                    c5:0b:7d:2d:67:06:5b:6f:39:07:bb:ad:60:c5:e4:
                    fc:17:0c:99:b0:46:c7:4a:4e:7d:39:b2:87:4a:c4:
                    dd:e5
                Exponent: 65537 (0x10001)
        X509v3 extensions:
            X509v3 Subject Key Identifier: 
                64:E9:66:9E:14:04:F1:A7:24:30:0B:7A:33:A6:19:C4:C0:8E:D0:79
            X509v3 Authority Key Identifier: 
                keyid:7A:46:CB:D2:2F:30:A4:FF:67:29:13:39:3F:9C:02:BF:03:D0:72:82

            X509v3 Key Usage: 
                Digital Signature, Non Repudiation, Key Encipherment, Data Encipherment
            X509v3 Extended Key Usage: 
                TLS Web Client Authentication
            X509v3 Basic Constraints: 
                CA:FALSE
            X509v3 Subject Alternative Name: 
                URI:urn:S2OPC:localhost, DNS:localhost
    Signature Algorithm: sha256WithRSAEncryption
         5d:ae:5e:4e:6a:e6:c5:d1:56:49:7c:41:8c:94:94:42:44:2e:
         1a:a4:2e:63:9b:3f:05:fb:78:52:83:9f:77:0a:87:60:11:12:
         b9:6b:2d:37:d8:85:a3:a6:3c:2d:60:20:bf:01:6c:c1:eb:6f:
         31:16:33:38:ed:6a:d1:df:78:ec:1b:52:00:c8:f5:2c:c3:02:
         91:6a:69:e1:9b:48:61:0b:b8:66:b4:c6:68:89:64:a2:37:c7:
         6f:9c:9c:e4:fd:a6:8c:b5:eb:5b:cf:92:66:00:0d:a0:b0:d2:
         1e:3c:1b:8a:29:c8:fd:e5:58:93:09:26:88:3a:1f:fa:5e:1d:
         f8:34:c9:0a:88:cd:f6:1c:ce:ea:c9:e1:7e:2f:7e:ea:17:67:
         a0:65:49:d5:71:1d:78:37:3a:4c:48:ee:9f:11:88:a6:67:b3:
         06:96:13:d6:b7:27:e0:ff:0b:a6:d7:81:fb:f3:3f:12:d4:4c:
         6d:5c:9d:12:17:a9:2c:73:9d:5c:d8:f0:b3:93:c2:ef:a3:96:
         84:d5:42:64:c8:3e:6e:28:cb:c1:e0:e7:9f:51:c0:a5:71:22:
         89:7f:ba:91:23:81:95:22:57:42:1b:f8:10:22:82:0d:1f:38:
         2e:0f:62:1e:1b:a2:86:be:69:5a:d1:d2:55:2a:d6:b8:10:3d:
         82:bd:19:de:d3:58:52:e9:d3:bc:82:70:07:ee:c9:3a:09:cc:
         ec:56:69:43:cd:b4:62:45:bd:ff:45:89:da:cf:cf:82:cb:66:
         ab:bc:e6:43:8c:b5:69:50:ef:a4:2f:25:15:3a:2e:74:98:85:
         1b:d6:5f:a9:f9:4b:88:72:06:04:4a:f1:f5:eb:56:f6:bc:b8:
         e9:f8:5f:c4:6e:ff:ab:60:61:92:8b:a9:ef:c7:28:45:08:01:
         47:29:bb:c2:dc:51:42:33:60:76:32:34:f0:5f:f1:a7:9f:a4:
         5f:a7:04:0a:46:1e:ce:61:a4:eb:93:5d:58:83:d8:d0:11:14:
         ba:ca:81:8b:94:c2:80:aa:db:e6:66:f7:e6:fd:06:e9:d1:50:
         dd:d7:fe:28:6d:c5:98:63:df:de:db:20:a6:1d:4c:46:63:66:
         18:ad:17:2b:9d:0e:62:b8:30:0c:0c:b5:c3:96:b4:3a:81:90:
         8f:cc:53:12:0d:c3:9e:3c:0d:0e:94:d2:1c:15:b3:6c:70:65:
         cf:82:5d:0d:b1:ab:58:1f:2c:b5:2c:d1:13:50:3a:08:1e:ae:
         0b:dc:6c:7d:0b:11:d1:82:03:16:ee:d6:00:bd:1d:1f:e7:4b:
         7e:0e:38:e6:5e:11:a2:dc:71:35:6b:5f:ec:d8:92:08:b7:e0:
         fb:cf:0a:64:55:3f:e1:06
-----BEGIN CERTIFICATE-----
MIIFEzCCAvugAwIBAgIBWTANBgkqhkiG9w0BAQsFADCBkzELMAkGA1UEBhMCRlIx
DzANBgNVBAgMBkZyYW5jZTERMA8GA1UECgwIU3lzdGVyZWwxNjA0BgNVBAMMLVMy
T1BDIENlbnR1cnkgQ2VydGlmaWNhdGUgQXV0aG9yaXR5IGZvciBUZXN0czEoMCYG
CSqGSIb3DQEJARYZczJvcGMtc3VwcG9ydEBzeXN0ZXJlbC5mcjAgFw0xOTExMTkx
NjA2MjlaGA8yMTE5MTAyNjE2MDYyOVowZjELMAkGA1UEBhMCRlIxDzANBgNVBAgM
BkZyYW5jZTERMA8GA1UECgwIU3lzdGVyZWwxMzAxBgNVBAMMKlMyT1BDIENlbnR1
cnkgQ2VydGlmaWNhdGUgZm9yIFRlc3QgQ2xpZW50czCCASIwDQYJKoZIhvcNAQEB
BQADggEPADCCAQoCggEBALtt6yYZLOdW/il6746GaVOdVoCLAT9VD2EWP0+Hn/GP
jtqDgTkCr9HdX8+jRuunq84ddgAo4gZdMYFhnD0eK2HjklVzw2FCb7LR7O/esltg
WFwIVbuovLDimWG/IYZBada553bOX/qUeHnwCM7vWiJSvW4e2kv57dPSuOc0u7wN
gb8sOy0CkC0xKiePtYxbUhrNnvZvYFdHYbWEGosM4QW60IGPESLKlxYV6fPwAqmM
Zz2g4YNTysPyBXBsuXD8l1paOB/s1Ixt2ft20mehOZAiANaUSefsnyQdafsvi/7M
xQt9LWcGW285B7utYMXk/BcMmbBGx0pOfTmyh0rE3eUCAwEAAaOBmzCBmDAdBgNV
HQ4EFgQUZOlmnhQE8ackMAt6M6YZxMCO0HkwHwYDVR0jBBgwFoAUekbL0i8wpP9n
KRM5P5wCvwPQcoIwCwYDVR0PBAQDAgTwMBMGA1UdJQQMMAoGCCsGAQUFBwMCMAkG
A1UdEwQCMAAwKQYDVR0RBCIwIIYTdXJuOlMyT1BDOmxvY2FsaG9zdIIJbG9jYWxo
b3N0MA0GCSqGSIb3DQEBCwUAA4ICAQBdrl5OaubF0VZJfEGMlJRCRC4apC5jmz8F
+3hSg593CodgERK5ay032IWjpjwtYCC/AWzB628xFjM47WrR33jsG1IAyPUswwKR
amnhm0hhC7hmtMZoiWSiN8dvnJzk/aaMtetbz5JmAA2gsNIePBuKKcj95ViTCSaI
Oh/6Xh34NMkKiM32HM7qyeF+L37qF2egZUnVcR14NzpMSO6fEYimZ7MGlhPWtyfg
/wum14H78z8S1ExtXJ0SF6ksc51c2PCzk8Lvo5aE1UJkyD5uKMvB4OefUcClcSKJ
f7qRI4GVIldCG/gQIoINHzguD2IeG6KGvmla0dJVKta4ED2CvRne01hS6dO8gnAH
7sk6CczsVmlDzbRiRb3/RYnaz8+Cy2arvOZDjLVpUO+kLyUVOi50mIUb1l+p+UuI
cgYESvH161b2vLjp+F/Ebv+rYGGSi6nvxyhFCAFHKbvC3FFCM2B2MjTwX/Gnn6Rf
pwQKRh7OYaTrk11Yg9jQERS6yoGLlMKAqtvmZvfm/Qbp0VDd1/4obcWYY9/e2yCm
HUxGY2YYrRcrnQ5iuDAMDLXDlrQ6gZCPzFMSDcOePA0OlNIcFbNscGXPgl0NsatY
Hyy1LNETUDoIHq4L3Gx9CxHRggMW7tYAvR0f50t+DjjmXhGi3HE1a1/s2JIIt+D7
zwpkVT/hBg==
-----END CERTIFICATE-----
