Certificate:
    Data:
        Version: 3 (0x2)
        Serial Number: 6 (0x6)
    Signature Algorithm: sha256WithRSAEncryption
        Issuer: C=FR, ST=IDF, L=PARIS, O=INGOPCS, OU=INGOPCS, CN=INGOPCS CA/emailAddress=ingopcs@systerel.fr
        Validity
            Not Before: Nov  2 16:58:54 2017 GMT
            Not After : Nov  2 16:58:54 2018 GMT
        Subject: C=FR, ST=IDF, L=PARIS, O=INGOPCS, OU=INGOPCS, CN=INGOPCS SERVER
        Subject Public Key Info:
            Public Key Algorithm: rsaEncryption
                Public-Key: (2048 bit)
                Modulus:
                    00:b2:45:84:2f:18:a2:58:70:b4:bd:cf:16:2c:a5:
                    b2:d4:8c:b5:31:f0:c5:ba:5d:50:9e:50:51:b8:92:
                    fe:53:5d:6d:bf:ba:fc:6f:3e:43:0a:f2:50:46:86:
                    59:47:6c:fd:83:81:c5:7a:9d:c4:06:3d:14:ef:48:
                    b6:ed:e8:7b:1a:15:e3:56:0a:8a:75:9a:4c:da:39:
                    7a:71:03:4c:81:21:42:c7:43:d1:66:85:b6:fe:2f:
                    2b:b3:a5:65:70:a8:8f:87:45:21:21:ec:b6:bc:e7:
                    86:5e:14:ef:83:a5:bd:43:66:61:99:5a:8a:06:35:
                    d3:ba:9b:22:32:4b:d2:d0:6f:3c:f1:17:41:8d:6e:
                    9e:2f:a3:e1:d3:17:c7:7b:a0:09:72:e6:22:d6:02:
                    d8:f1:c0:7a:72:0b:a7:d0:64:15:0e:e0:53:3f:25:
                    6c:cc:0b:b6:fa:04:47:dc:ac:c9:74:62:7c:54:bb:
                    54:4c:60:cb:ef:5a:eb:70:eb:fe:8c:07:ac:af:64:
                    f3:15:08:8e:84:61:a4:af:2f:9d:88:46:06:5c:41:
                    6d:0c:1c:c4:07:5e:4b:aa:2d:7f:44:c1:be:2b:d1:
                    e2:d8:de:c1:f9:79:6b:87:27:ca:c0:5f:5e:93:10:
                    69:19:2f:ae:49:62:98:a5:49:ba:e6:df:69:9e:26:
                    38:27
                Exponent: 65537 (0x10001)
        X509v3 extensions:
            X509v3 Subject Key Identifier: 
                49:DA:05:83:06:8C:3C:89:4A:C3:27:77:D9:2B:A8:4E:87:63:F7:22
            X509v3 Authority Key Identifier: 
                keyid:31:AE:8E:65:33:64:06:E4:37:9B:51:8F:C3:37:9D:CE:45:9B:B6:1F

            X509v3 Basic Constraints: critical
                CA:TRUE
            X509v3 Key Usage: 
                Certificate Sign, CRL Sign
            X509v3 Subject Alternative Name: 
                URI:urn:INGOPCS:localhost, DNS:localhost
            Netscape Comment: 
                OpenSSL Generated Certificate
    Signature Algorithm: sha256WithRSAEncryption
         53:e9:82:48:06:61:e4:bf:fb:4a:f3:f1:b3:7d:66:3e:41:91:
         a3:b0:cf:b5:90:e9:f5:00:08:63:4c:63:d3:b4:42:97:b7:54:
         4d:ee:44:f1:03:f5:89:c1:5f:59:b0:80:e0:37:60:33:09:e0:
         af:e6:b9:d2:94:f6:1a:d8:5f:5d:e2:72:75:98:3d:6d:81:35:
         3e:97:df:c3:0b:bb:cc:3b:35:9a:87:20:20:6b:c2:98:bc:9f:
         0d:a9:7a:4d:bd:24:c0:c0:7a:96:07:07:1c:3d:72:9a:d2:84:
         9e:e0:c3:d2:b4:10:ee:9e:06:6a:ef:3a:9b:f3:e7:55:f1:92:
         70:80:8c:5e:fb:af:46:a8:c8:ca:7d:29:01:62:a8:18:c1:e6:
         ab:ba:08:c9:73:e4:d6:85:74:87:a6:2e:0a:34:a6:19:30:15:
         0e:2e:26:39:fc:5e:c8:23:4f:5a:86:a3:8b:d9:e7:45:4f:81:
         57:73:2f:60:28:ad:bc:b1:52:57:70:67:1c:04:43:72:42:70:
         d4:bf:8f:a5:30:19:3e:03:37:12:a2:e2:f2:b8:58:1d:3d:ca:
         a9:74:cb:35:04:c4:75:58:23:22:b8:f0:ff:b2:12:a7:14:fe:
         a2:b6:01:6e:b9:28:ef:52:3e:c6:5f:0b:16:00:63:ba:20:7c:
         45:ca:a2:d7
-----BEGIN CERTIFICATE-----
MIIEKTCCAxGgAwIBAgIBBjANBgkqhkiG9w0BAQsFADCBiDELMAkGA1UEBhMCRlIx
DDAKBgNVBAgMA0lERjEOMAwGA1UEBwwFUEFSSVMxEDAOBgNVBAoMB0lOR09QQ1Mx
EDAOBgNVBAsMB0lOR09QQ1MxEzARBgNVBAMMCklOR09QQ1MgQ0ExIjAgBgkqhkiG
9w0BCQEWE2luZ29wY3NAc3lzdGVyZWwuZnIwHhcNMTcxMTAyMTY1ODU0WhcNMTgx
MTAyMTY1ODU0WjBoMQswCQYDVQQGEwJGUjEMMAoGA1UECAwDSURGMQ4wDAYDVQQH
DAVQQVJJUzEQMA4GA1UECgwHSU5HT1BDUzEQMA4GA1UECwwHSU5HT1BDUzEXMBUG
A1UEAwwOSU5HT1BDUyBTRVJWRVIwggEiMA0GCSqGSIb3DQEBAQUAA4IBDwAwggEK
AoIBAQCyRYQvGKJYcLS9zxYspbLUjLUx8MW6XVCeUFG4kv5TXW2/uvxvPkMK8lBG
hllHbP2DgcV6ncQGPRTvSLbt6HsaFeNWCop1mkzaOXpxA0yBIULHQ9Fmhbb+Lyuz
pWVwqI+HRSEh7La854ZeFO+Dpb1DZmGZWooGNdO6myIyS9LQbzzxF0GNbp4vo+HT
F8d7oAly5iLWAtjxwHpyC6fQZBUO4FM/JWzMC7b6BEfcrMl0YnxUu1RMYMvvWutw
6/6MB6yvZPMVCI6EYaSvL52IRgZcQW0MHMQHXkuqLX9Ewb4r0eLY3sH5eWuHJ8rA
X16TEGkZL65JYpilSbrm32meJjgnAgMBAAGjgbwwgbkwHQYDVR0OBBYEFEnaBYMG
jDyJSsMnd9krqE6HY/ciMB8GA1UdIwQYMBaAFDGujmUzZAbkN5tRj8M3nc5Fm7Yf
MA8GA1UdEwEB/wQFMAMBAf8wCwYDVR0PBAQDAgEGMCsGA1UdEQQkMCKGFXVybjpJ
TkdPUENTOmxvY2FsaG9zdIIJbG9jYWxob3N0MCwGCWCGSAGG+EIBDQQfFh1PcGVu
U1NMIEdlbmVyYXRlZCBDZXJ0aWZpY2F0ZTANBgkqhkiG9w0BAQsFAAOCAQEAU+mC
SAZh5L/7SvPxs31mPkGRo7DPtZDp9QAIY0xj07RCl7dUTe5E8QP1icFfWbCA4Ddg
Mwngr+a50pT2GthfXeJydZg9bYE1Ppffwwu7zDs1mocgIGvCmLyfDal6Tb0kwMB6
lgcHHD1ymtKEnuDD0rQQ7p4Gau86m/PnVfGScICMXvuvRqjIyn0pAWKoGMHmq7oI
yXPk1oV0h6YuCjSmGTAVDi4mOfxeyCNPWoaji9nnRU+BV3MvYCitvLFSV3BnHARD
ckJw1L+PpTAZPgM3EqLi8rhYHT3KqXTLNQTEdVgjIrjw/7ISpxT+orYBbrko71I+
xl8LFgBjuiB8Rcqi1w==
-----END CERTIFICATE-----
