Certificate:
    Data:
        Version: 3 (0x2)
        Serial Number: 4 (0x4)
    Signature Algorithm: sha256WithRSAEncryption
        Issuer: C=FR, ST=IDF, L=PARIS, O=INGOPCS, OU=INGOPCS, CN=INGOPCS CA/emailAddress=ingopcs@systerel.fr
        Validity
            Not Before: Sep 27 15:53:27 2017 GMT
            Not After : Sep 27 15:53:27 2018 GMT
        Subject: C=FR, ST=IDF, L=PARIS, O=INGOPCS, OU=INGOPCS, CN=INGOPCS SERVER
        Subject Public Key Info:
            Public Key Algorithm: rsaEncryption
                Public-Key: (2048 bit)
                Modulus:
                    00:cf:eb:a9:cf:f9:99:f0:00:64:f3:b7:19:79:03:
                    a1:6f:b5:0c:f8:83:cf:f8:64:6b:8f:09:52:b6:bb:
                    e5:b5:90:76:34:83:ed:14:33:09:78:f1:90:3a:90:
                    f3:0a:fd:94:67:83:39:5f:a0:47:52:8c:0e:c5:dd:
                    4e:7b:4d:6a:c1:3f:f2:1c:88:cc:6c:b4:b3:b7:c3:
                    ac:fd:3d:6d:ee:74:ba:f7:d9:5a:1e:40:23:6f:cb:
                    b3:4d:f5:55:fd:72:c1:b0:6c:c5:81:ab:91:3f:6c:
                    b5:f3:55:c7:d7:7a:2d:c0:f0:46:31:b2:6e:2a:2e:
                    b3:86:57:38:1c:ae:50:65:c4:b8:df:86:38:c9:04:
                    1a:6a:57:31:a3:21:e4:81:d3:b7:cf:57:67:7b:b2:
                    18:1a:7b:5b:11:bd:43:66:b0:ff:b5:e5:8a:7e:a8:
                    b6:a8:3a:41:4e:15:3c:a5:4d:ef:f0:17:31:ea:33:
                    fe:2d:53:df:18:0f:12:c1:1d:f6:88:7e:b4:e1:d6:
                    88:33:79:54:0d:7d:d1:ae:36:11:f7:1c:4a:db:e0:
                    a4:27:98:b6:2f:ae:89:87:c6:04:68:fb:ca:4c:f4:
                    d9:21:f0:b8:ce:87:e5:98:c7:48:9c:de:e0:3e:32:
                    64:ba:7d:44:4b:df:20:06:1c:ef:5b:0e:b9:f2:9a:
                    3b:73
                Exponent: 65537 (0x10001)
        X509v3 extensions:
            X509v3 Subject Key Identifier: 
                5F:6C:A3:CF:D0:97:27:39:82:9C:CC:AF:AF:52:ED:6B:A6:CA:ED:78
            X509v3 Authority Key Identifier: 
                keyid:31:AE:8E:65:33:64:06:E4:37:9B:51:8F:C3:37:9D:CE:45:9B:B6:1F

            X509v3 Basic Constraints: critical
                CA:TRUE
            X509v3 Key Usage: 
                Certificate Sign, CRL Sign
            X509v3 Subject Alternative Name: 
                DNS:localhost
            Netscape Comment: 
                OpenSSL Generated Certificate
    Signature Algorithm: sha256WithRSAEncryption
         02:e7:c7:b9:e2:2e:73:64:a4:86:77:c6:32:d2:17:25:0b:5d:
         65:82:5a:19:11:79:70:ba:8d:42:ea:5c:2b:5b:c1:82:0f:0a:
         0b:0c:43:fc:75:21:ec:c9:f1:f9:a5:de:78:25:8a:3b:d8:27:
         35:31:1a:39:82:0c:76:f1:1b:ae:ee:e9:64:8c:00:cb:85:77:
         85:53:e1:13:23:87:e1:4d:dd:09:48:18:e4:2f:a0:cd:f9:2d:
         bf:ec:ff:1f:9a:ec:2b:21:93:3d:5b:cf:04:8d:46:19:fa:d7:
         06:d2:82:23:42:bf:49:9c:9d:08:5d:a1:1e:06:43:b1:ac:ba:
         c7:b0:78:70:1e:e9:ce:72:57:0c:fb:82:79:38:c9:b5:94:9f:
         4b:5c:34:a0:81:ea:6b:2a:ab:01:2f:32:5c:ce:24:7c:5c:ca:
         08:0a:86:d7:05:8e:90:7f:4c:8a:42:71:99:84:da:d1:94:7f:
         6e:39:f8:7f:32:cc:7c:ba:c7:78:bf:fc:88:c6:d9:0c:2e:c3:
         cf:57:94:ec:e2:93:47:9f:5e:7d:b2:db:f7:19:01:4d:87:96:
         e1:7e:bb:e8:73:b5:e7:b6:dd:9f:77:f1:83:0b:e3:20:94:b2:
         26:83:57:2b:e5:33:ff:61:a7:f5:09:5c:f8:e4:73:fb:d8:0c:
         d5:d7:d6:dd
-----BEGIN CERTIFICATE-----
MIIEEjCCAvqgAwIBAgIBBDANBgkqhkiG9w0BAQsFADCBiDELMAkGA1UEBhMCRlIx
DDAKBgNVBAgMA0lERjEOMAwGA1UEBwwFUEFSSVMxEDAOBgNVBAoMB0lOR09QQ1Mx
EDAOBgNVBAsMB0lOR09QQ1MxEzARBgNVBAMMCklOR09QQ1MgQ0ExIjAgBgkqhkiG
9w0BCQEWE2luZ29wY3NAc3lzdGVyZWwuZnIwHhcNMTcwOTI3MTU1MzI3WhcNMTgw
OTI3MTU1MzI3WjBoMQswCQYDVQQGEwJGUjEMMAoGA1UECAwDSURGMQ4wDAYDVQQH
DAVQQVJJUzEQMA4GA1UECgwHSU5HT1BDUzEQMA4GA1UECwwHSU5HT1BDUzEXMBUG
A1UEAwwOSU5HT1BDUyBTRVJWRVIwggEiMA0GCSqGSIb3DQEBAQUAA4IBDwAwggEK
AoIBAQDP66nP+ZnwAGTztxl5A6FvtQz4g8/4ZGuPCVK2u+W1kHY0g+0UMwl48ZA6
kPMK/ZRngzlfoEdSjA7F3U57TWrBP/IciMxstLO3w6z9PW3udLr32VoeQCNvy7NN
9VX9csGwbMWBq5E/bLXzVcfXei3A8EYxsm4qLrOGVzgcrlBlxLjfhjjJBBpqVzGj
IeSB07fPV2d7shgae1sRvUNmsP+15Yp+qLaoOkFOFTylTe/wFzHqM/4tU98YDxLB
HfaIfrTh1ogzeVQNfdGuNhH3HErb4KQnmLYvromHxgRo+8pM9Nkh8LjOh+WYx0ic
3uA+MmS6fURL3yAGHO9bDrnymjtzAgMBAAGjgaUwgaIwHQYDVR0OBBYEFF9so8/Q
lyc5gpzMr69S7Wumyu14MB8GA1UdIwQYMBaAFDGujmUzZAbkN5tRj8M3nc5Fm7Yf
MA8GA1UdEwEB/wQFMAMBAf8wCwYDVR0PBAQDAgEGMBQGA1UdEQQNMAuCCWxvY2Fs
aG9zdDAsBglghkgBhvhCAQ0EHxYdT3BlblNTTCBHZW5lcmF0ZWQgQ2VydGlmaWNh
dGUwDQYJKoZIhvcNAQELBQADggEBAALnx7niLnNkpIZ3xjLSFyULXWWCWhkReXC6
jULqXCtbwYIPCgsMQ/x1IezJ8fml3nglijvYJzUxGjmCDHbxG67u6WSMAMuFd4VT
4RMjh+FN3QlIGOQvoM35Lb/s/x+a7Cshkz1bzwSNRhn61wbSgiNCv0mcnQhdoR4G
Q7GsuseweHAe6c5yVwz7gnk4ybWUn0tcNKCB6msqqwEvMlzOJHxcyggKhtcFjpB/
TIpCcZmE2tGUf245+H8yzHy6x3i//IjG2Qwuw89XlOzik0efXn2y2/cZAU2HluF+
u+hztee23Z938YML4yCUsiaDVyvlM/9hp/UJXPjkc/vYDNXX1t0=
-----END CERTIFICATE-----
