Certificate:
    Data:
        Version: 3 (0x2)
        Serial Number: 252 (0xfc)
    Signature Algorithm: sha256WithRSAEncryption
        Issuer: C=FR, ST=France, O=Systerel, CN=S2OPC Century Certificate Authority for Tests/emailAddress=s2opc-support@systerel.fr
        Validity
            Not Before: Oct  4 15:48:16 2018 GMT
            Not After : Sep 10 15:48:16 2118 GMT
        Subject: C=FR, ST=France, O=Systerel, CN=S2OPC Century Certificate for Test Servers
        Subject Public Key Info:
            Public Key Algorithm: rsaEncryption
                Public-Key: (2048 bit)
                Modulus:
                    00:9b:b3:fc:e0:a5:80:5a:86:80:35:e5:b1:bb:e1:
                    61:af:33:be:45:96:c9:02:9f:e7:28:9e:3c:48:52:
                    c9:ad:a1:05:42:5f:96:bf:73:29:41:12:3e:6d:e1:
                    a7:35:cc:64:42:29:e8:95:e3:5b:a4:18:0c:37:ef:
                    e7:05:f1:37:6b:e6:50:c8:f4:c6:e1:26:ce:a0:f8:
                    0d:52:a0:33:cf:76:83:e1:27:a1:e6:ae:33:6b:b0:
                    78:9c:48:fe:82:bd:0b:c6:5a:c5:33:ea:7a:60:57:
                    39:c0:73:76:ce:f6:08:8c:f8:81:ee:52:eb:6a:e0:
                    4f:c6:dc:10:cd:70:59:a1:b8:55:15:31:72:1d:71:
                    48:6b:bb:8f:ba:8f:1d:28:98:cf:ca:99:1d:ff:31:
                    c7:1d:a7:f7:2b:08:30:3b:45:3f:ff:bb:17:11:17:
                    ec:ce:d9:33:09:23:3f:e1:17:2f:cb:61:84:b7:6d:
                    6d:05:56:71:ba:56:d2:d5:61:f0:8c:a2:82:8f:97:
                    c7:2c:10:89:9c:60:31:27:fc:98:72:5a:1b:81:84:
                    a1:a4:9b:84:33:24:00:d2:3d:92:f3:fd:5a:8b:75:
                    90:5b:3f:ac:bb:f7:2e:3b:80:cd:e8:6a:be:cf:50:
                    6e:5f:4e:75:1f:e2:fd:3d:16:9e:b0:2d:56:74:ef:
                    c6:af
                Exponent: 65537 (0x10001)
        X509v3 extensions:
            X509v3 Subject Key Identifier: 
                67:45:AA:CC:41:25:41:D8:E1:D5:50:21:FD:83:E5:77:A3:F4:E3:EA
            X509v3 Authority Key Identifier: 
                keyid:7A:46:CB:D2:2F:30:A4:FF:67:29:13:39:3F:9C:02:BF:03:D0:72:82

            X509v3 Basic Constraints: critical
                CA:TRUE
            X509v3 Key Usage: 
                Certificate Sign, CRL Sign
            X509v3 Subject Alternative Name: 
                URI:urn:S2OPC:localhost, DNS:localhost
    Signature Algorithm: sha256WithRSAEncryption
         b6:91:9e:f6:2e:ca:e7:18:1b:68:52:dd:f9:04:a8:4d:d1:57:
         81:69:4a:60:ad:78:ed:11:5c:18:1a:5a:f8:10:82:00:a8:52:
         d9:fe:b8:56:65:da:fc:76:60:4e:73:3d:df:fa:6f:4a:9d:62:
         b1:41:d6:b9:7a:89:da:9c:66:b5:2d:04:36:86:d4:6d:3d:4a:
         88:c2:0c:c0:71:02:af:cd:61:ab:d8:76:85:06:5d:f9:9e:ee:
         cd:b6:82:94:84:09:21:9d:3d:8f:cd:3d:3a:0f:0d:dc:66:65:
         11:1d:a5:a1:1d:6f:72:a6:06:7b:e1:1e:88:04:b9:94:d4:58:
         0b:e6:ec:59:e7:7b:38:95:be:ec:5f:d7:92:95:04:b1:5c:1d:
         63:f9:8c:13:75:7a:15:6c:f3:d7:74:aa:ee:4b:6b:c2:c1:d2:
         41:f7:01:1a:48:3c:75:2e:74:b9:34:02:60:9d:33:a6:9e:97:
         4c:e9:08:67:33:e2:9c:11:2c:c7:c5:e7:f4:05:b6:d8:19:30:
         9b:7a:ce:a5:a3:25:04:5f:4e:32:2b:26:ed:17:71:8e:e4:09:
         35:4d:c1:07:26:79:f7:dc:8a:05:29:ba:5d:1e:e7:2e:7b:eb:
         08:77:e0:6d:6b:a3:7b:a2:5f:a9:87:83:d0:72:e8:c0:b5:10:
         b1:74:ef:70:51:50:30:07:69:9f:69:14:cc:3a:d9:76:bd:33:
         4e:50:b9:7c:69:c6:14:ef:44:46:9b:7c:1b:c1:56:e3:b7:1f:
         cd:60:16:da:f4:a1:76:1a:29:d1:54:d0:01:df:7b:7e:3f:c1:
         40:2a:4d:41:48:e6:1f:58:de:bf:30:dd:43:43:67:97:d4:2a:
         76:34:39:d2:a1:5d:27:61:02:d4:f1:91:06:af:83:30:b3:71:
         06:af:5c:61:56:04:6c:a0:58:3d:63:1a:be:86:55:2c:ec:fa:
         12:1e:80:31:11:53:36:1d:b3:85:fa:e6:de:61:c7:33:b6:d9:
         f1:ff:59:e8:11:0a:02:f0:80:2e:08:de:94:15:97:fc:95:5f:
         d4:b6:b1:8c:97:63:79:98:6f:ca:df:95:df:a4:53:20:e7:f6:
         ae:81:bb:14:4f:8f:07:a2:b4:16:b2:eb:68:ca:9d:19:c0:ac:
         fd:ea:26:5f:8b:48:8c:bc:6b:5c:f5:17:94:35:3a:fa:7e:7e:
         52:da:6f:f8:44:5b:c6:0e:7a:69:59:b8:cf:fc:13:1d:8a:f4:
         74:84:60:9b:cb:ce:e3:fc:de:73:c8:76:fb:1b:4b:98:06:a7:
         1d:75:12:4a:b5:08:26:73:a4:9f:85:ae:62:9a:bc:8f:b3:39:
         f6:85:00:9a:38:69:35:17
-----BEGIN CERTIFICATE-----
MIIFBTCCAu2gAwIBAgICAPwwDQYJKoZIhvcNAQELBQAwgZMxCzAJBgNVBAYTAkZS
MQ8wDQYDVQQIDAZGcmFuY2UxETAPBgNVBAoMCFN5c3RlcmVsMTYwNAYDVQQDDC1T
Mk9QQyBDZW50dXJ5IENlcnRpZmljYXRlIEF1dGhvcml0eSBmb3IgVGVzdHMxKDAm
BgkqhkiG9w0BCQEWGXMyb3BjLXN1cHBvcnRAc3lzdGVyZWwuZnIwIBcNMTgxMDA0
MTU0ODE2WhgPMjExODA5MTAxNTQ4MTZaMGYxCzAJBgNVBAYTAkZSMQ8wDQYDVQQI
DAZGcmFuY2UxETAPBgNVBAoMCFN5c3RlcmVsMTMwMQYDVQQDDCpTMk9QQyBDZW50
dXJ5IENlcnRpZmljYXRlIGZvciBUZXN0IFNlcnZlcnMwggEiMA0GCSqGSIb3DQEB
AQUAA4IBDwAwggEKAoIBAQCbs/zgpYBahoA15bG74WGvM75FlskCn+conjxIUsmt
oQVCX5a/cylBEj5t4ac1zGRCKeiV41ukGAw37+cF8Tdr5lDI9MbhJs6g+A1SoDPP
doPhJ6HmrjNrsHicSP6CvQvGWsUz6npgVznAc3bO9giM+IHuUutq4E/G3BDNcFmh
uFUVMXIdcUhru4+6jx0omM/KmR3/Mccdp/crCDA7RT//uxcRF+zO2TMJIz/hFy/L
YYS3bW0FVnG6VtLVYfCMooKPl8csEImcYDEn/JhyWhuBhKGkm4QzJADSPZLz/VqL
dZBbP6y79y47gM3oar7PUG5fTnUf4v09Fp6wLVZ078avAgMBAAGjgYwwgYkwHQYD
VR0OBBYEFGdFqsxBJUHY4dVQIf2D5Xej9OPqMB8GA1UdIwQYMBaAFHpGy9IvMKT/
ZykTOT+cAr8D0HKCMA8GA1UdEwEB/wQFMAMBAf8wCwYDVR0PBAQDAgEGMCkGA1Ud
EQQiMCCGE3VybjpTMk9QQzpsb2NhbGhvc3SCCWxvY2FsaG9zdDANBgkqhkiG9w0B
AQsFAAOCAgEAtpGe9i7K5xgbaFLd+QSoTdFXgWlKYK147RFcGBpa+BCCAKhS2f64
VmXa/HZgTnM93/pvSp1isUHWuXqJ2pxmtS0ENobUbT1KiMIMwHECr81hq9h2hQZd
+Z7uzbaClIQJIZ09j809Og8N3GZlER2loR1vcqYGe+EeiAS5lNRYC+bsWed7OJW+
7F/XkpUEsVwdY/mME3V6FWzz13Sq7ktrwsHSQfcBGkg8dS50uTQCYJ0zpp6XTOkI
ZzPinBEsx8Xn9AW22Bkwm3rOpaMlBF9OMism7RdxjuQJNU3BByZ599yKBSm6XR7n
LnvrCHfgbWuje6JfqYeD0HLowLUQsXTvcFFQMAdpn2kUzDrZdr0zTlC5fGnGFO9E
Rpt8G8FW47cfzWAW2vShdhop0VTQAd97fj/BQCpNQUjmH1jevzDdQ0Nnl9QqdjQ5
0qFdJ2EC1PGRBq+DMLNxBq9cYVYEbKBYPWMavoZVLOz6Eh6AMRFTNh2zhfrm3mHH
M7bZ8f9Z6BEKAvCALgjelBWX/JVf1LaxjJdjeZhvyt+V36RTIOf2roG7FE+PB6K0
FrLraMqdGcCs/eomX4tIjLxrXPUXlDU6+n5+Utpv+ERbxg56aVm4z/wTHYr0dIRg
m8vO4/zec8h2+xtLmAanHXUSSrUIJnOkn4WuYpq8j7M59oUAmjhpNRc=
-----END CERTIFICATE-----
