Certificate:
    Data:
        Version: 3 (0x2)
        Serial Number: 12 (0xc)
    Signature Algorithm: sha256WithRSAEncryption
        Issuer: C=FR, ST=IDF, L=PARIS, O=S2OPC, OU=S2OPC, CN=S2OPC CA/emailAddress=s2opc-support@systerel.fr
        Validity
            Not Before: Sep 26 15:08:58 2018 GMT
            Not After : Sep 15 15:08:58 2020 GMT
        Subject: C=FR, ST=IDF, L=PARIS, O=S2OPC, OU=S2OPC, CN=S2OPC Test Server
        Subject Public Key Info:
            Public Key Algorithm: rsaEncryption
                Public-Key: (2048 bit)
                Modulus:
                    00:b2:45:84:2f:18:a2:58:70:b4:bd:cf:16:2c:a5:
                    b2:d4:8c:b5:31:f0:c5:ba:5d:50:9e:50:51:b8:92:
                    fe:53:5d:6d:bf:ba:fc:6f:3e:43:0a:f2:50:46:86:
                    59:47:6c:fd:83:81:c5:7a:9d:c4:06:3d:14:ef:48:
                    b6:ed:e8:7b:1a:15:e3:56:0a:8a:75:9a:4c:da:39:
                    7a:71:03:4c:81:21:42:c7:43:d1:66:85:b6:fe:2f:
                    2b:b3:a5:65:70:a8:8f:87:45:21:21:ec:b6:bc:e7:
                    86:5e:14:ef:83:a5:bd:43:66:61:99:5a:8a:06:35:
                    d3:ba:9b:22:32:4b:d2:d0:6f:3c:f1:17:41:8d:6e:
                    9e:2f:a3:e1:d3:17:c7:7b:a0:09:72:e6:22:d6:02:
                    d8:f1:c0:7a:72:0b:a7:d0:64:15:0e:e0:53:3f:25:
                    6c:cc:0b:b6:fa:04:47:dc:ac:c9:74:62:7c:54:bb:
                    54:4c:60:cb:ef:5a:eb:70:eb:fe:8c:07:ac:af:64:
                    f3:15:08:8e:84:61:a4:af:2f:9d:88:46:06:5c:41:
                    6d:0c:1c:c4:07:5e:4b:aa:2d:7f:44:c1:be:2b:d1:
                    e2:d8:de:c1:f9:79:6b:87:27:ca:c0:5f:5e:93:10:
                    69:19:2f:ae:49:62:98:a5:49:ba:e6:df:69:9e:26:
                    38:27
                Exponent: 65537 (0x10001)
        X509v3 extensions:
            X509v3 Subject Key Identifier: 
                49:DA:05:83:06:8C:3C:89:4A:C3:27:77:D9:2B:A8:4E:87:63:F7:22
            X509v3 Authority Key Identifier: 
                keyid:31:AE:8E:65:33:64:06:E4:37:9B:51:8F:C3:37:9D:CE:45:9B:B6:1F

            X509v3 Basic Constraints: critical
                CA:TRUE
            X509v3 Key Usage: 
                Certificate Sign, CRL Sign
            X509v3 Subject Alternative Name: 
                URI:urn:S2OPC:localhost, DNS:localhost
            Netscape Comment: 
                OpenSSL Generated Certificate
    Signature Algorithm: sha256WithRSAEncryption
         2c:f9:84:13:9a:67:c7:40:81:d5:4a:8f:7d:24:8e:48:5e:14:
         25:b5:12:ff:f3:29:fa:fb:a8:32:0a:75:c9:3a:ce:c0:ca:f5:
         c0:4b:04:f6:f6:84:8b:e9:49:c3:de:39:36:48:10:1f:e8:d7:
         41:f0:81:59:64:86:41:19:82:ee:58:c3:a1:58:6e:af:7d:1d:
         66:28:79:86:a5:1e:10:12:e8:d4:b7:8c:db:37:e1:97:8f:51:
         b0:90:1b:44:07:6b:5d:06:53:d2:51:d4:a1:51:2a:1d:84:93:
         46:6d:f5:9e:b3:fe:48:bb:95:8a:9c:8a:ed:90:28:94:34:dc:
         29:56:6a:af:fe:c8:18:b3:78:83:0a:c5:d3:85:72:30:78:6a:
         86:0b:c9:fd:38:6b:62:50:3a:ee:d2:6b:4e:1f:02:6d:b0:52:
         61:6b:b1:ac:87:63:2e:cf:50:d4:c1:26:ff:57:c2:92:f6:ae:
         d0:3f:e8:0e:97:b6:57:db:c3:fe:76:a7:43:22:ab:3e:7d:c7:
         d6:5e:71:fb:4f:fe:fa:b8:91:9a:d5:e0:99:0f:30:6b:ed:8f:
         7e:cc:cb:be:0d:95:c0:9d:85:16:40:c9:b0:d1:78:a4:ac:a9:
         46:2e:bb:5e:f5:2f:51:65:54:cd:71:57:1a:d1:1e:dc:6c:b1:
         eb:fd:ca:1d
-----BEGIN CERTIFICATE-----
MIIEJjCCAw6gAwIBAgIBDDANBgkqhkiG9w0BAQsFADCBiDELMAkGA1UEBhMCRlIx
DDAKBgNVBAgMA0lERjEOMAwGA1UEBwwFUEFSSVMxDjAMBgNVBAoMBVMyT1BDMQ4w
DAYDVQQLDAVTMk9QQzERMA8GA1UEAwwIUzJPUEMgQ0ExKDAmBgkqhkiG9w0BCQEW
GXMyb3BjLXN1cHBvcnRAc3lzdGVyZWwuZnIwHhcNMTgwOTI2MTUwODU4WhcNMjAw
OTE1MTUwODU4WjBnMQswCQYDVQQGEwJGUjEMMAoGA1UECAwDSURGMQ4wDAYDVQQH
DAVQQVJJUzEOMAwGA1UECgwFUzJPUEMxDjAMBgNVBAsMBVMyT1BDMRowGAYDVQQD
DBFTMk9QQyBUZXN0IFNlcnZlcjCCASIwDQYJKoZIhvcNAQEBBQADggEPADCCAQoC
ggEBALJFhC8YolhwtL3PFiylstSMtTHwxbpdUJ5QUbiS/lNdbb+6/G8+QwryUEaG
WUds/YOBxXqdxAY9FO9Itu3oexoV41YKinWaTNo5enEDTIEhQsdD0WaFtv4vK7Ol
ZXCoj4dFISHstrznhl4U74OlvUNmYZlaigY107qbIjJL0tBvPPEXQY1uni+j4dMX
x3ugCXLmItYC2PHAenILp9BkFQ7gUz8lbMwLtvoER9ysyXRifFS7VExgy+9a63Dr
/owHrK9k8xUIjoRhpK8vnYhGBlxBbQwcxAdeS6otf0TBvivR4tjewfl5a4cnysBf
XpMQaRkvrklimKVJuubfaZ4mOCcCAwEAAaOBujCBtzAdBgNVHQ4EFgQUSdoFgwaM
PIlKwyd32SuoTodj9yIwHwYDVR0jBBgwFoAUMa6OZTNkBuQ3m1GPwzedzkWbth8w
DwYDVR0TAQH/BAUwAwEB/zALBgNVHQ8EBAMCAQYwKQYDVR0RBCIwIIYTdXJuOlMy
T1BDOmxvY2FsaG9zdIIJbG9jYWxob3N0MCwGCWCGSAGG+EIBDQQfFh1PcGVuU1NM
IEdlbmVyYXRlZCBDZXJ0aWZpY2F0ZTANBgkqhkiG9w0BAQsFAAOCAQEALPmEE5pn
x0CB1UqPfSSOSF4UJbUS//Mp+vuoMgp1yTrOwMr1wEsE9vaEi+lJw945NkgQH+jX
QfCBWWSGQRmC7ljDoVhur30dZih5hqUeEBLo1LeM2zfhl49RsJAbRAdrXQZT0lHU
oVEqHYSTRm31nrP+SLuVipyK7ZAolDTcKVZqr/7IGLN4gwrF04VyMHhqhgvJ/Thr
YlA67tJrTh8CbbBSYWuxrIdjLs9Q1MEm/1fCkvau0D/oDpe2V9vD/nanQyKrPn3H
1l5x+0/++riRmtXgmQ8wa+2PfszLvg2VwJ2FFkDJsNF4pKypRi67XvUvUWVUzXFX
GtEe3Gyx6/3KHQ==
-----END CERTIFICATE-----
