Certificate:
    Data:
        Version: 3 (0x2)
        Serial Number: 253 (0xfd)
    Signature Algorithm: sha256WithRSAEncryption
        Issuer: C=FR, ST=France, O=Systerel, CN=S2OPC Century Certificate Authority for Tests/emailAddress=s2opc-support@systerel.fr
        Validity
            Not Before: Oct  4 15:48:19 2018 GMT
            Not After : Sep 10 15:48:19 2118 GMT
        Subject: C=FR, ST=France, O=Systerel, CN=S2OPC Century Certificate for Test Servers
        Subject Public Key Info:
            Public Key Algorithm: rsaEncryption
                Public-Key: (4096 bit)
                Modulus:
                    00:db:b9:a2:cc:46:fe:b8:8f:f1:8b:21:62:97:8a:
                    fc:c3:ba:5e:97:9e:88:f9:70:b1:11:d7:67:ac:f2:
                    19:43:02:48:54:42:19:e1:8d:0d:45:b2:50:c8:20:
                    10:54:bb:2a:5d:94:23:22:3e:89:1d:aa:75:da:cb:
                    49:88:92:49:ee:0e:a3:86:3b:ba:29:ff:4d:9c:64:
                    ec:b0:7c:52:10:51:40:9a:2e:c5:67:4c:c4:c8:c4:
                    3a:47:0b:a7:4f:61:b5:34:4b:30:63:23:aa:6f:19:
                    ce:7a:78:a1:36:38:f1:e3:0f:5b:ca:9c:d3:32:07:
                    38:1c:8e:2e:6d:29:f0:00:2d:47:23:a7:73:6a:e4:
                    1f:2e:94:28:58:3a:ae:ab:85:5b:59:e8:39:78:aa:
                    b1:af:d3:37:8b:c7:cd:18:11:5c:c2:84:9e:08:d7:
                    fd:64:21:9b:bb:4e:a2:b4:dd:83:18:a1:00:fb:0b:
                    6a:41:a4:52:de:bd:30:e4:b0:86:6f:ea:4d:50:af:
                    ea:75:4a:49:22:58:87:46:7c:55:ed:92:83:c3:d1:
                    a9:7d:50:77:2a:14:fc:f2:3d:2e:68:6a:b1:41:00:
                    ac:4b:3a:4a:a8:20:33:df:ae:70:58:80:b9:ba:b7:
                    0d:ee:b4:b8:86:32:c0:38:77:d2:80:23:67:38:2b:
                    64:e6:03:f4:f4:28:d4:b9:a3:3b:6e:13:ef:33:dc:
                    f6:7d:da:7f:f6:02:cf:ed:30:fd:fd:75:27:ac:24:
                    d8:1d:35:d7:c1:80:fb:2c:f8:35:a0:e7:56:4a:af:
                    bf:f5:3c:51:d1:7e:b8:89:6d:25:f7:be:64:93:58:
                    2f:1a:bb:43:40:77:ec:59:34:98:11:c4:7d:af:fd:
                    64:7d:b0:88:dc:2f:2f:6e:a3:b7:7d:ed:d3:2b:69:
                    0e:2d:66:8a:d1:bd:c5:5b:04:91:8d:f4:10:ab:4c:
                    93:c8:da:d9:62:8e:38:f4:08:bc:92:93:66:85:fc:
                    a2:05:77:14:53:08:1d:11:6e:f6:d9:d8:d1:1d:be:
                    a6:c0:fa:af:10:47:bc:06:43:48:0e:99:ca:77:21:
                    f3:61:8e:a7:af:80:98:c7:9c:a7:f8:7a:dc:5b:47:
                    b8:80:1c:47:51:83:04:af:1c:5c:71:c7:6c:22:5d:
                    ab:b8:04:ff:cc:76:58:88:1a:26:ac:59:cf:df:e6:
                    81:a8:98:0b:ef:7f:a2:0d:e1:8e:d6:f8:5a:37:75:
                    1e:cb:fe:f6:05:59:bf:79:6a:65:d3:e8:cd:61:71:
                    e8:eb:34:ba:66:58:3f:0f:17:f0:b2:83:d8:2a:80:
                    7d:70:5d:83:7b:21:b3:fc:2d:db:d0:cf:bd:9f:a6:
                    c8:df:6f
                Exponent: 65537 (0x10001)
        X509v3 extensions:
            X509v3 Subject Key Identifier: 
                B6:2C:7F:07:27:96:7D:5E:96:DC:FE:6E:7B:C6:8F:9F:56:59:BB:75
            X509v3 Authority Key Identifier: 
                keyid:7A:46:CB:D2:2F:30:A4:FF:67:29:13:39:3F:9C:02:BF:03:D0:72:82

            X509v3 Basic Constraints: critical
                CA:TRUE
            X509v3 Key Usage: 
                Certificate Sign, CRL Sign
            X509v3 Subject Alternative Name: 
                URI:urn:S2OPC:localhost, DNS:localhost
    Signature Algorithm: sha256WithRSAEncryption
         07:2a:18:f3:9a:dc:85:e1:f7:a8:59:b4:70:87:37:28:f4:a9:
         e0:3d:a6:a2:d0:c6:b6:d6:96:bc:fe:d4:52:bf:57:07:06:b3:
         c3:ac:0a:ec:3a:8a:31:b9:bf:83:b8:c9:3f:fd:26:04:b9:ab:
         8a:5f:ce:4b:74:2b:e9:4b:23:5e:bd:85:1a:d0:c8:0b:1a:c2:
         b2:68:43:65:2d:84:74:be:9a:27:8e:00:64:c7:17:36:3c:98:
         60:19:45:1a:d6:9c:f2:1f:f3:80:0b:4d:be:3f:f9:35:e5:b5:
         f8:3b:5f:b9:78:34:94:d4:80:4e:a8:bc:34:64:c1:28:c0:8a:
         35:73:82:7f:5f:f7:22:2c:11:ac:5b:1a:80:e6:d5:53:4d:6f:
         f3:f0:b3:c6:d6:cc:90:38:0e:62:7c:a1:c4:17:ec:15:ac:1c:
         53:0b:2f:be:01:53:ad:a6:6a:21:69:07:ad:94:d8:b1:79:68:
         13:1e:c6:68:dd:18:a6:c7:47:fa:24:8a:13:7d:30:3f:99:a7:
         61:2d:18:2a:7b:4e:03:02:11:81:03:50:9a:17:d1:26:3d:e4:
         9e:9a:b1:d7:7a:d1:ea:d0:eb:8a:91:94:e6:d3:b8:e5:07:b3:
         c1:3b:a3:89:8b:17:0d:e8:b1:db:fd:2d:ac:be:45:3f:a2:7f:
         e2:5d:ff:56:0e:16:c7:e1:41:ac:1d:c0:09:17:c4:ee:a4:96:
         bf:c9:a7:d7:a1:67:ae:9a:bc:84:91:5d:69:26:5d:13:88:14:
         63:20:b6:92:52:e7:36:98:fb:04:4e:ae:2d:c2:5b:9e:33:bd:
         78:e4:fb:86:27:c2:ab:1c:9b:7e:3e:e2:5d:f9:8a:cb:56:0a:
         ab:17:37:3b:d0:38:f2:6c:fb:b7:85:47:f7:03:d9:41:78:64:
         0d:81:9e:bc:f1:df:70:8c:bb:83:de:27:e0:5b:53:df:c6:4e:
         7d:01:59:8d:cc:49:eb:1a:e4:6c:e3:34:ae:c9:8a:32:05:ee:
         93:bc:f6:27:65:92:55:6f:eb:2d:90:73:83:72:c4:49:06:4c:
         ed:13:a1:2b:f4:f3:1b:4b:fe:50:2c:63:2b:ee:8f:9d:6b:71:
         54:51:0f:3e:67:c2:c2:7b:f5:8f:b3:7a:8e:76:c2:55:8a:30:
         f9:8f:60:72:f2:88:6e:8b:59:18:1a:9a:3a:77:54:b3:76:b4:
         3a:a6:fa:fe:21:a2:c5:13:de:14:28:df:62:11:2c:2f:c9:64:
         b3:5a:68:1a:14:ed:f4:53:c9:92:8a:ab:fa:f6:22:c0:42:24:
         c6:25:84:a9:16:f6:d2:04:3f:10:68:30:4a:b2:42:b5:03:56:
         6a:a6:26:49:69:98:df:9a
-----BEGIN CERTIFICATE-----
MIIGBTCCA+2gAwIBAgICAP0wDQYJKoZIhvcNAQELBQAwgZMxCzAJBgNVBAYTAkZS
MQ8wDQYDVQQIDAZGcmFuY2UxETAPBgNVBAoMCFN5c3RlcmVsMTYwNAYDVQQDDC1T
Mk9QQyBDZW50dXJ5IENlcnRpZmljYXRlIEF1dGhvcml0eSBmb3IgVGVzdHMxKDAm
BgkqhkiG9w0BCQEWGXMyb3BjLXN1cHBvcnRAc3lzdGVyZWwuZnIwIBcNMTgxMDA0
MTU0ODE5WhgPMjExODA5MTAxNTQ4MTlaMGYxCzAJBgNVBAYTAkZSMQ8wDQYDVQQI
DAZGcmFuY2UxETAPBgNVBAoMCFN5c3RlcmVsMTMwMQYDVQQDDCpTMk9QQyBDZW50
dXJ5IENlcnRpZmljYXRlIGZvciBUZXN0IFNlcnZlcnMwggIiMA0GCSqGSIb3DQEB
AQUAA4ICDwAwggIKAoICAQDbuaLMRv64j/GLIWKXivzDul6Xnoj5cLER12es8hlD
AkhUQhnhjQ1FslDIIBBUuypdlCMiPokdqnXay0mIkknuDqOGO7op/02cZOywfFIQ
UUCaLsVnTMTIxDpHC6dPYbU0SzBjI6pvGc56eKE2OPHjD1vKnNMyBzgcji5tKfAA
LUcjp3Nq5B8ulChYOq6rhVtZ6Dl4qrGv0zeLx80YEVzChJ4I1/1kIZu7TqK03YMY
oQD7C2pBpFLevTDksIZv6k1Qr+p1SkkiWIdGfFXtkoPD0al9UHcqFPzyPS5oarFB
AKxLOkqoIDPfrnBYgLm6tw3utLiGMsA4d9KAI2c4K2TmA/T0KNS5oztuE+8z3PZ9
2n/2As/tMP39dSesJNgdNdfBgPss+DWg51ZKr7/1PFHRfriJbSX3vmSTWC8au0NA
d+xZNJgRxH2v/WR9sIjcLy9uo7d97dMraQ4tZorRvcVbBJGN9BCrTJPI2tlijjj0
CLySk2aF/KIFdxRTCB0RbvbZ2NEdvqbA+q8QR7wGQ0gOmcp3IfNhjqevgJjHnKf4
etxbR7iAHEdRgwSvHFxxx2wiXau4BP/MdliIGiasWc/f5oGomAvvf6IN4Y7W+Fo3
dR7L/vYFWb95amXT6M1hcejrNLpmWD8PF/Cyg9gqgH1wXYN7IbP8LdvQz72fpsjf
bwIDAQABo4GMMIGJMB0GA1UdDgQWBBS2LH8HJ5Z9Xpbc/m57xo+fVlm7dTAfBgNV
HSMEGDAWgBR6RsvSLzCk/2cpEzk/nAK/A9BygjAPBgNVHRMBAf8EBTADAQH/MAsG
A1UdDwQEAwIBBjApBgNVHREEIjAghhN1cm46UzJPUEM6bG9jYWxob3N0gglsb2Nh
bGhvc3QwDQYJKoZIhvcNAQELBQADggIBAAcqGPOa3IXh96hZtHCHNyj0qeA9pqLQ
xrbWlrz+1FK/VwcGs8OsCuw6ijG5v4O4yT/9JgS5q4pfzkt0K+lLI169hRrQyAsa
wrJoQ2UthHS+mieOAGTHFzY8mGAZRRrWnPIf84ALTb4/+TXltfg7X7l4NJTUgE6o
vDRkwSjAijVzgn9f9yIsEaxbGoDm1VNNb/Pws8bWzJA4DmJ8ocQX7BWsHFMLL74B
U62maiFpB62U2LF5aBMexmjdGKbHR/okihN9MD+Zp2EtGCp7TgMCEYEDUJoX0SY9
5J6asdd60erQ64qRlObTuOUHs8E7o4mLFw3osdv9Lay+RT+if+Jd/1YOFsfhQawd
wAkXxO6klr/Jp9ehZ66avISRXWkmXROIFGMgtpJS5zaY+wROri3CW54zvXjk+4Yn
wqscm34+4l35istWCqsXNzvQOPJs+7eFR/cD2UF4ZA2Bnrzx33CMu4PeJ+BbU9/G
Tn0BWY3MSesa5GzjNK7JijIF7pO89idlklVv6y2Qc4NyxEkGTO0ToSv08xtL/lAs
Yyvuj51rcVRRDz5nwsJ79Y+zeo52wlWKMPmPYHLyiG6LWRgamjp3VLN2tDqm+v4h
osUT3hQo32IRLC/JZLNaaBoU7fRTyZKKq/r2IsBCJMYlhKkW9tIEPxBoMEqyQrUD
VmqmJklpmN+a
-----END CERTIFICATE-----
