Certificate:
    Data:
        Version: 3 (0x2)
        Serial Number: 11 (0xb)
    Signature Algorithm: sha256WithRSAEncryption
        Issuer: C=FR, ST=IDF, L=PARIS, O=S2OPC, OU=S2OPC, CN=S2OPC CA/emailAddress=s2opc-support@systerel.fr
        Validity
            Not Before: Sep 26 15:07:56 2018 GMT
            Not After : Sep 15 15:07:56 2020 GMT
        Subject: C=FR, ST=IDF, L=PARIS, O=S2OPC, OU=S2OPC, CN=S2OPC Test Server
        Subject Public Key Info:
            Public Key Algorithm: rsaEncryption
                Public-Key: (4096 bit)
                Modulus:
                    00:cb:82:a4:78:7c:a1:64:3c:17:0a:1b:00:5b:4a:
                    22:f1:3b:fc:4b:b3:19:4a:2f:93:3b:86:1c:f9:55:
                    f0:d4:4d:8c:7c:f1:a3:83:ae:77:f3:ec:b3:3b:10:
                    b1:47:ed:77:37:4c:cc:2b:10:59:83:30:4a:a7:33:
                    aa:3b:68:62:7b:30:15:bc:5a:6b:07:92:7b:cc:7c:
                    1d:64:91:48:39:36:5a:5f:87:6c:68:85:e2:92:e3:
                    11:ae:66:96:43:39:72:80:35:51:d3:f8:e2:86:68:
                    2d:9b:b5:51:f2:c1:af:49:5a:b7:9b:dc:fb:b7:bd:
                    49:90:42:6b:37:d9:15:79:40:c9:a0:47:9b:03:2f:
                    ee:c9:73:d7:15:5f:72:4c:be:11:97:4c:4d:31:22:
                    e8:f6:af:cb:e0:e6:c8:98:05:82:f1:29:a8:f8:05:
                    75:60:f9:99:7e:9e:20:c4:98:13:d3:86:84:60:c7:
                    2c:09:69:10:df:76:70:81:f0:2e:50:60:c1:b4:0f:
                    71:35:31:0a:6b:50:b0:e1:6a:98:c7:4f:4c:6b:04:
                    75:30:a9:ca:f3:89:4f:ae:98:9d:89:bf:54:3c:61:
                    d7:12:7b:ab:db:fe:65:04:d6:3a:03:1f:78:ec:3b:
                    6e:22:55:d8:a0:b8:95:de:c8:63:64:5e:ed:f4:13:
                    6c:6c:e7:81:61:58:63:38:63:04:7c:9a:a1:98:ff:
                    c4:36:5e:39:2b:6c:96:97:87:e8:9c:de:9f:53:b5:
                    1b:07:e0:c0:b3:a5:bf:d0:6f:e4:e8:7d:d8:75:af:
                    9a:e9:67:d9:30:36:3c:2c:9c:95:9a:4e:dd:74:c8:
                    d1:48:dd:ab:0a:fd:cd:a6:e5:02:82:f9:f3:75:df:
                    65:0d:a9:02:30:c8:ea:81:c2:8f:14:29:61:92:d2:
                    2e:95:7b:23:f4:0e:7b:97:b8:39:75:ce:22:8b:29:
                    62:8f:ba:ce:b3:ec:17:40:81:4d:81:ec:3d:bb:b7:
                    68:cc:4c:72:af:f4:4a:0a:b9:cb:95:3e:c9:cf:7b:
                    b4:69:2d:e0:75:d6:10:79:de:ba:cf:b1:83:59:6f:
                    5e:c6:98:e8:23:17:36:ad:2e:42:41:2c:ae:02:a2:
                    ef:9b:ae:95:85:75:cd:0d:02:49:8a:5d:98:3d:b2:
                    59:ee:63:30:4f:cc:37:8e:93:44:be:13:f7:74:c5:
                    8b:79:ad:f6:6e:be:f7:31:85:cc:8d:e1:9a:ca:20:
                    ab:0a:43:94:12:cd:26:14:23:f6:8c:fb:15:fe:de:
                    2a:0b:fe:5f:42:0c:38:66:f1:28:d9:bf:47:06:e4:
                    6d:b0:07:fe:e3:ec:e3:78:86:43:72:11:ce:7b:58:
                    c8:40:39
                Exponent: 65537 (0x10001)
        X509v3 extensions:
            X509v3 Subject Key Identifier: 
                77:BE:9F:CA:67:61:17:7C:6C:42:E9:D3:5C:A3:F0:97:F3:D8:96:67
            X509v3 Authority Key Identifier: 
                keyid:31:AE:8E:65:33:64:06:E4:37:9B:51:8F:C3:37:9D:CE:45:9B:B6:1F

            X509v3 Basic Constraints: critical
                CA:TRUE
            X509v3 Key Usage: 
                Certificate Sign, CRL Sign
            X509v3 Subject Alternative Name: 
                URI:urn:S2OPC:localhost, DNS:localhost
            Netscape Comment: 
                OpenSSL Generated Certificate
    Signature Algorithm: sha256WithRSAEncryption
         6f:e1:6c:4d:a8:fc:7d:cf:74:0d:b7:96:9c:32:f9:b2:99:c2:
         75:28:35:ba:a9:9e:9f:37:f8:61:79:70:a4:4d:58:be:8c:03:
         56:e2:e1:6d:9e:18:66:28:a0:41:63:c8:c0:c1:8c:55:45:b8:
         b0:81:d8:29:fd:80:6d:43:52:b2:8f:b8:61:ee:dd:8d:39:1a:
         e2:77:5e:e2:ae:cf:57:74:f9:c8:a4:f4:e2:4d:b4:63:06:e1:
         20:8c:d6:b2:40:0e:25:4d:f7:fa:fa:8a:47:c8:90:46:94:d2:
         33:bb:95:47:43:bd:45:5a:d9:b4:e7:07:55:03:ce:93:65:4a:
         34:d2:a8:ea:75:7e:e5:e1:d7:98:65:ad:16:20:8f:73:20:3c:
         bb:5d:fc:e0:2d:b5:9f:ec:d3:4c:1b:cf:c0:ea:56:b2:8c:a2:
         c6:01:70:f0:06:11:b8:18:88:80:37:8c:08:5a:d7:23:61:be:
         67:7b:b2:88:a9:a2:aa:41:bd:4a:a5:50:9a:fe:e0:ab:2a:a8:
         7d:47:71:38:25:f3:7e:fe:25:37:b8:89:f8:6d:ea:19:6b:31:
         bb:c3:aa:bd:9d:eb:59:70:43:76:3d:76:0d:3a:bc:85:72:79:
         53:84:12:25:7b:5d:65:20:a2:59:03:2c:08:64:77:b9:74:f8:
         56:54:f4:9b
-----BEGIN CERTIFICATE-----
MIIFJjCCBA6gAwIBAgIBCzANBgkqhkiG9w0BAQsFADCBiDELMAkGA1UEBhMCRlIx
DDAKBgNVBAgMA0lERjEOMAwGA1UEBwwFUEFSSVMxDjAMBgNVBAoMBVMyT1BDMQ4w
DAYDVQQLDAVTMk9QQzERMA8GA1UEAwwIUzJPUEMgQ0ExKDAmBgkqhkiG9w0BCQEW
GXMyb3BjLXN1cHBvcnRAc3lzdGVyZWwuZnIwHhcNMTgwOTI2MTUwNzU2WhcNMjAw
OTE1MTUwNzU2WjBnMQswCQYDVQQGEwJGUjEMMAoGA1UECAwDSURGMQ4wDAYDVQQH
DAVQQVJJUzEOMAwGA1UECgwFUzJPUEMxDjAMBgNVBAsMBVMyT1BDMRowGAYDVQQD
DBFTMk9QQyBUZXN0IFNlcnZlcjCCAiIwDQYJKoZIhvcNAQEBBQADggIPADCCAgoC
ggIBAMuCpHh8oWQ8FwobAFtKIvE7/EuzGUovkzuGHPlV8NRNjHzxo4Oud/PsszsQ
sUftdzdMzCsQWYMwSqczqjtoYnswFbxaaweSe8x8HWSRSDk2Wl+HbGiF4pLjEa5m
lkM5coA1UdP44oZoLZu1UfLBr0lat5vc+7e9SZBCazfZFXlAyaBHmwMv7slz1xVf
cky+EZdMTTEi6Pavy+DmyJgFgvEpqPgFdWD5mX6eIMSYE9OGhGDHLAlpEN92cIHw
LlBgwbQPcTUxCmtQsOFqmMdPTGsEdTCpyvOJT66YnYm/VDxh1xJ7q9v+ZQTWOgMf
eOw7biJV2KC4ld7IY2Re7fQTbGzngWFYYzhjBHyaoZj/xDZeOStslpeH6Jzen1O1
GwfgwLOlv9Bv5Oh92HWvmuln2TA2PCyclZpO3XTI0Ujdqwr9zablAoL583XfZQ2p
AjDI6oHCjxQpYZLSLpV7I/QOe5e4OXXOIospYo+6zrPsF0CBTYHsPbu3aMxMcq/0
Sgq5y5U+yc97tGkt4HXWEHneus+xg1lvXsaY6CMXNq0uQkEsrgKi75uulYV1zQ0C
SYpdmD2yWe5jME/MN46TRL4T93TFi3mt9m6+9zGFzI3hmsogqwpDlBLNJhQj9oz7
Ff7eKgv+X0IMOGbxKNm/RwbkbbAH/uPs43iGQ3IRzntYyEA5AgMBAAGjgbowgbcw
HQYDVR0OBBYEFHe+n8pnYRd8bELp01yj8Jfz2JZnMB8GA1UdIwQYMBaAFDGujmUz
ZAbkN5tRj8M3nc5Fm7YfMA8GA1UdEwEB/wQFMAMBAf8wCwYDVR0PBAQDAgEGMCkG
A1UdEQQiMCCGE3VybjpTMk9QQzpsb2NhbGhvc3SCCWxvY2FsaG9zdDAsBglghkgB
hvhCAQ0EHxYdT3BlblNTTCBHZW5lcmF0ZWQgQ2VydGlmaWNhdGUwDQYJKoZIhvcN
AQELBQADggEBAG/hbE2o/H3PdA23lpwy+bKZwnUoNbqpnp83+GF5cKRNWL6MA1bi
4W2eGGYooEFjyMDBjFVFuLCB2Cn9gG1DUrKPuGHu3Y05GuJ3XuKuz1d0+cik9OJN
tGMG4SCM1rJADiVN9/r6ikfIkEaU0jO7lUdDvUVa2bTnB1UDzpNlSjTSqOp1fuXh
15hlrRYgj3MgPLtd/OAttZ/s00wbz8DqVrKMosYBcPAGEbgYiIA3jAha1yNhvmd7
soipoqpBvUqlUJr+4KsqqH1HcTgl837+JTe4ifht6hlrMbvDqr2d61lwQ3Y9dg06
vIVyeVOEEiV7XWUgolkDLAhkd7l0+FZU9Js=
-----END CERTIFICATE-----
