Certificate:
    Data:
        Version: 3 (0x2)
        Serial Number: 12288 (0x3000)
        Signature Algorithm: sha256WithRSAEncryption
        Issuer: C=FR, ST=France, L=Aix-en-Provence, O=Systerel, CN=S2OPC Demo Intermediate Client Authority for Tests
        Validity
            Not Before: Oct  3 09:29:35 2023 GMT
            Not After : Oct  2 09:29:35 2025 GMT
        Subject: C=FR, ST=France, L=Aix-en-Provence, O=Systerel, CN=S2OPC Demo Int Certificate for Client tests
        Subject Public Key Info:
            Public Key Algorithm: rsaEncryption
                RSA Public-Key: (4096 bit)
                Modulus:
                    00:d6:37:57:e0:40:d1:29:9f:3c:a4:28:a2:dd:d3:
                    be:9a:37:a5:31:d1:a9:ad:15:78:ae:c1:d3:db:80:
                    3b:84:49:c2:94:e5:bd:89:d4:1d:47:1b:7a:4a:14:
                    e3:c9:74:40:62:fc:d1:68:e0:ba:32:46:d4:9d:a9:
                    cd:86:c3:62:55:6a:de:68:ea:cd:68:20:43:cc:ed:
                    b0:68:09:5a:79:cb:3a:16:34:be:9e:fd:97:55:b4:
                    1f:d3:29:46:e3:52:ce:d4:15:49:64:23:22:ac:a8:
                    42:4b:0a:93:43:1c:91:1d:ad:22:a3:e5:f8:8f:da:
                    84:d1:cc:59:2c:17:32:5f:22:b2:ae:c5:c0:cb:cf:
                    0d:19:63:58:15:47:5c:8e:15:3d:48:03:58:45:ac:
                    6a:dd:80:3d:d8:58:59:cf:8e:cd:af:36:02:45:9b:
                    b2:7f:0c:75:99:4d:af:8a:74:64:c5:8b:c4:fa:c2:
                    fe:ec:e5:44:12:12:f1:49:5f:1d:07:48:e7:d9:8a:
                    14:d9:d6:ad:0f:26:d1:77:ac:53:a2:74:5f:ad:4b:
                    3b:47:a6:fe:2d:ed:ec:65:76:d2:39:b6:7c:e8:42:
                    0f:fd:ca:bc:e8:be:8d:4f:b9:c2:b6:19:bf:9d:f4:
                    89:65:90:6d:23:88:9c:d3:1b:f8:74:06:bb:82:20:
                    ff:6a:81:a6:06:32:4c:bc:ff:6b:fd:76:c8:54:0b:
                    40:f0:96:8a:0a:8b:9d:0e:e1:ce:ef:a9:99:72:9f:
                    52:98:03:42:c5:86:a4:7f:56:14:df:2e:15:4a:c9:
                    35:69:a0:53:83:e5:5e:da:88:2a:ba:ab:97:c3:c8:
                    da:71:42:69:09:24:85:7f:44:ac:74:27:a0:81:00:
                    b7:74:39:0e:5b:7e:25:b3:63:d6:f9:86:de:62:ff:
                    3f:ab:27:ef:8f:e0:06:1f:b5:4c:ac:b6:a1:1b:35:
                    21:bd:be:06:d2:ac:85:e7:48:f8:c1:4e:0c:d7:2d:
                    26:a7:6a:57:69:24:9b:a5:5c:68:5e:f5:d3:1c:2e:
                    eb:d6:2d:25:d4:39:7f:80:e4:50:17:f3:c2:9a:fb:
                    2d:ad:14:bb:57:6a:2c:b8:8b:83:62:ac:74:73:8b:
                    7d:ad:5d:bf:cc:3d:be:b3:ed:d2:b0:8d:74:60:25:
                    a8:85:d4:62:2e:e7:b6:83:5a:05:6e:cb:84:36:e7:
                    7b:8b:c6:9f:5a:a4:65:4e:1f:97:3f:a1:99:46:26:
                    f0:8e:e2:3d:7c:f4:c7:d8:d0:a3:d7:51:3d:79:b6:
                    1f:88:4a:f8:19:4a:06:ed:3e:b3:f3:91:46:70:dd:
                    28:da:c7:84:40:12:f1:17:ca:cb:28:77:1f:55:b5:
                    83:4c:2d
                Exponent: 65537 (0x10001)
        X509v3 extensions:
            X509v3 Subject Key Identifier: 
                F6:E0:60:C1:D3:5C:45:70:73:FB:94:4A:86:94:6A:D1:68:70:33:FF
            X509v3 Authority Key Identifier: 
                keyid:87:D0:6C:50:C4:2D:5D:93:B5:E4:71:67:5E:25:76:AF:E8:B0:5F:05

            X509v3 Key Usage: 
                Digital Signature, Non Repudiation, Key Encipherment, Data Encipherment
            X509v3 Extended Key Usage: 
                TLS Web Client Authentication
            X509v3 Basic Constraints: 
                CA:FALSE
            X509v3 Subject Alternative Name: 
                URI:urn:S2OPC:localhost, DNS:localhost
    Signature Algorithm: sha256WithRSAEncryption
         70:50:f1:99:aa:a0:df:f2:83:62:f7:bf:f1:ab:59:70:50:9d:
         b6:1c:a6:33:3c:2f:f1:77:46:9b:05:d5:08:b9:db:37:00:a4:
         28:a0:e8:08:0b:ae:2f:ec:14:82:0e:72:c5:7e:94:de:b3:b3:
         8b:85:e5:6c:02:70:d7:00:c3:04:e6:cd:6d:25:15:e6:7b:80:
         dc:d9:9e:34:40:5b:5c:6f:e6:e7:ec:d8:fb:3a:bf:9f:58:18:
         fe:5f:f1:c6:51:40:f5:24:f4:05:10:95:b3:c2:92:69:5e:a5:
         2b:ca:c0:5e:af:41:09:b0:18:a0:0c:dd:27:bb:8c:86:2a:e9:
         a2:40:0a:7c:0f:4f:ff:e1:fc:50:29:c6:51:98:fe:f7:98:c3:
         3a:5f:54:91:84:89:30:48:d4:83:66:8f:ff:f8:02:29:12:d7:
         46:a1:ed:77:ca:df:46:d5:6a:4f:d4:6f:1b:5c:9d:af:53:a0:
         4d:11:49:05:86:01:7c:4d:e2:a7:09:4f:0f:6d:a0:3e:40:7c:
         97:8d:02:70:b0:a4:5e:ed:33:95:11:33:df:05:b0:16:16:e3:
         88:a0:bb:97:59:a7:6e:76:05:05:d4:9d:bc:72:2b:e0:ba:25:
         be:60:07:5c:f0:6f:2b:d7:a8:0a:be:fb:18:d7:fe:61:2c:63:
         bb:8d:57:c3:2c:9e:09:55:16:39:b1:f8:5f:26:7d:99:15:ac:
         93:e3:5d:30:83:e5:15:f3:15:b3:cf:6f:1f:0b:d3:4e:be:d8:
         4e:7c:80:46:06:80:3a:c9:29:b3:58:90:e8:50:27:2e:7a:28:
         e1:07:0a:95:ba:d5:ea:3f:dd:b7:42:45:55:05:1a:c9:b7:79:
         4c:d0:29:af:f8:cb:99:b1:b2:a9:bf:34:c5:24:04:85:d2:61:
         cf:66:73:11:4b:3c:73:5d:0e:dd:07:a9:8e:d2:57:98:b7:57:
         0d:c6:3c:43:25:0a:2d:42:37:de:a1:88:6c:ce:1c:84:35:c4:
         ff:7b:e3:ef:2b:1b:49:b8:44:fa:31:b6:1b:f0:fc:f9:c5:5b:
         45:0d:91:58:5c:75:84:2f:86:fe:6b:98:9e:77:d9:f1:0b:cb:
         b9:d0:d7:07:6b:e2:49:e5:5d:61:26:c4:a8:d5:a9:4d:72:92:
         22:c9:a8:b0:18:3b:6e:08:2e:01:42:a6:e8:d7:d1:f2:64:e8:
         d5:15:27:73:dd:33:f6:70:29:09:9e:03:08:e0:50:87:2d:9b:
         8f:a1:e0:55:12:54:05:f2:c1:34:cf:8d:67:5c:78:3e:84:91:
         c4:b8:9f:9e:3b:e4:f5:e4:3f:d5:10:80:69:2d:49:6f:c0:ec:
         d4:0f:41:20:7c:71:7b:92
-----BEGIN CERTIFICATE-----
MIIGIzCCBAugAwIBAgICMAAwDQYJKoZIhvcNAQELBQAwgYgxCzAJBgNVBAYTAkZS
MQ8wDQYDVQQIDAZGcmFuY2UxGDAWBgNVBAcMD0FpeC1lbi1Qcm92ZW5jZTERMA8G
A1UECgwIU3lzdGVyZWwxOzA5BgNVBAMMMlMyT1BDIERlbW8gSW50ZXJtZWRpYXRl
IENsaWVudCBBdXRob3JpdHkgZm9yIFRlc3RzMB4XDTIzMTAwMzA5MjkzNVoXDTI1
MTAwMjA5MjkzNVowgYExCzAJBgNVBAYTAkZSMQ8wDQYDVQQIDAZGcmFuY2UxGDAW
BgNVBAcMD0FpeC1lbi1Qcm92ZW5jZTERMA8GA1UECgwIU3lzdGVyZWwxNDAyBgNV
BAMMK1MyT1BDIERlbW8gSW50IENlcnRpZmljYXRlIGZvciBDbGllbnQgdGVzdHMw
ggIiMA0GCSqGSIb3DQEBAQUAA4ICDwAwggIKAoICAQDWN1fgQNEpnzykKKLd076a
N6Ux0amtFXiuwdPbgDuEScKU5b2J1B1HG3pKFOPJdEBi/NFo4LoyRtSdqc2Gw2JV
at5o6s1oIEPM7bBoCVp5yzoWNL6e/ZdVtB/TKUbjUs7UFUlkIyKsqEJLCpNDHJEd
rSKj5fiP2oTRzFksFzJfIrKuxcDLzw0ZY1gVR1yOFT1IA1hFrGrdgD3YWFnPjs2v
NgJFm7J/DHWZTa+KdGTFi8T6wv7s5UQSEvFJXx0HSOfZihTZ1q0PJtF3rFOidF+t
SztHpv4t7exldtI5tnzoQg/9yrzovo1PucK2Gb+d9IllkG0jiJzTG/h0BruCIP9q
gaYGMky8/2v9dshUC0DwlooKi50O4c7vqZlyn1KYA0LFhqR/VhTfLhVKyTVpoFOD
5V7aiCq6q5fDyNpxQmkJJIV/RKx0J6CBALd0OQ5bfiWzY9b5ht5i/z+rJ++P4AYf
tUystqEbNSG9vgbSrIXnSPjBTgzXLSanaldpJJulXGhe9dMcLuvWLSXUOX+A5FAX
88Ka+y2tFLtXaiy4i4NirHRzi32tXb/MPb6z7dKwjXRgJaiF1GIu57aDWgVuy4Q2
53uLxp9apGVOH5c/oZlGJvCO4j189MfY0KPXUT15th+ISvgZSgbtPrPzkUZw3Sja
x4RAEvEXyssodx9VtYNMLQIDAQABo4GbMIGYMB0GA1UdDgQWBBT24GDB01xFcHP7
lEqGlGrRaHAz/zAfBgNVHSMEGDAWgBSH0GxQxC1dk7XkcWdeJXav6LBfBTALBgNV
HQ8EBAMCBPAwEwYDVR0lBAwwCgYIKwYBBQUHAwIwCQYDVR0TBAIwADApBgNVHREE
IjAghhN1cm46UzJPUEM6bG9jYWxob3N0gglsb2NhbGhvc3QwDQYJKoZIhvcNAQEL
BQADggIBAHBQ8ZmqoN/yg2L3v/GrWXBQnbYcpjM8L/F3RpsF1Qi52zcApCig6AgL
ri/sFIIOcsV+lN6zs4uF5WwCcNcAwwTmzW0lFeZ7gNzZnjRAW1xv5ufs2Ps6v59Y
GP5f8cZRQPUk9AUQlbPCkmlepSvKwF6vQQmwGKAM3Se7jIYq6aJACnwPT//h/FAp
xlGY/veYwzpfVJGEiTBI1INmj//4AikS10ah7XfK30bVak/Ubxtcna9ToE0RSQWG
AXxN4qcJTw9toD5AfJeNAnCwpF7tM5URM98FsBYW44igu5dZp252BQXUnbxyK+C6
Jb5gB1zwbyvXqAq++xjX/mEsY7uNV8MsnglVFjmx+F8mfZkVrJPjXTCD5RXzFbPP
bx8L006+2E58gEYGgDrJKbNYkOhQJy56KOEHCpW61eo/3bdCRVUFGsm3eUzQKa/4
y5mxsqm/NMUkBIXSYc9mcxFLPHNdDt0HqY7SV5i3Vw3GPEMlCi1CN96hiGzOHIQ1
xP974+8rG0m4RPoxthvw/PnFW0UNkVhcdYQvhv5rmJ532fELy7nQ1wdr4knlXWEm
xKjVqU1ykiLJqLAYO24ILgFCpujX0fJk6NUVJ3PdM/ZwKQmeAwjgUIctm4+h4FUS
VAXywTTPjWdceD6EkcS4n5475PXkP9UQgGktSW/A7NQPQSB8cXuS
-----END CERTIFICATE-----
