Certificate:
    Data:
        Version: 3 (0x2)
        Serial Number: 8192 (0x2000)
        Signature Algorithm: sha256WithRSAEncryption
        Issuer: C=FR, ST=France, O=Systerel, CN=S2OPC Demo Untrusted Authority for Tests/emailAddress=s2opc-support@systerel.fr, L=Aix-en-Provence
        Validity
            Not Before: Oct  2 10:54:16 2023 GMT
            Not After : Oct  1 10:54:16 2025 GMT
        Subject: C=FR, ST=France, L=Aix-en-Provence, O=Systerel, CN=S2OPC Demo Trusted Certificate for Client Tests
        Subject Public Key Info:
            Public Key Algorithm: rsaEncryption
                RSA Public-Key: (4096 bit)
                Modulus:
                    00:c5:fb:66:47:bd:1d:65:ad:4f:67:15:29:52:f5:
                    72:30:38:77:51:89:63:5b:11:53:96:e7:95:08:7c:
                    a3:11:8c:7d:3e:39:d5:96:e6:86:68:c1:3d:45:fe:
                    88:d3:5f:7b:75:df:c2:fb:61:86:d1:08:76:f6:63:
                    5a:2f:23:b0:cf:9c:e5:cb:54:ed:64:12:f3:07:19:
                    13:c4:c2:e5:00:c0:d3:bf:a5:99:fb:4f:48:b3:b2:
                    4b:c2:5d:84:3c:9c:71:9a:6c:42:19:51:75:a7:9e:
                    89:83:63:29:11:13:d6:6b:ed:1a:8b:da:da:20:0f:
                    b4:c3:79:f3:1c:b1:1b:96:42:43:34:d7:c0:e6:57:
                    59:db:a6:03:17:1e:2b:45:a5:09:0f:e3:d2:8a:7b:
                    3b:92:cf:b9:d9:d5:0f:9b:05:34:b1:28:74:ad:b9:
                    b6:9d:4f:75:a3:fc:6d:ac:a1:14:17:5e:8e:8d:50:
                    28:75:b7:04:7a:b9:fd:6f:7e:41:0c:d0:12:8d:53:
                    7b:cf:83:a2:5f:63:46:a1:82:75:ed:57:1a:a5:17:
                    00:1b:29:3f:8a:32:2f:58:52:85:49:6f:0d:2d:c5:
                    c0:d8:f9:80:2b:39:4c:2a:76:bf:e0:9c:50:28:17:
                    0d:3a:93:5d:89:91:63:7c:80:39:c7:de:51:e9:81:
                    a8:91:5d:bc:58:92:1d:af:d9:ed:8d:cd:09:4f:95:
                    e2:6b:37:3a:92:25:c6:6d:27:19:a0:0c:67:0e:2c:
                    38:ff:66:68:4b:3a:d9:54:58:fa:a4:6d:ab:be:74:
                    55:fc:a3:5d:97:d2:2e:e2:31:4a:26:5a:8a:17:58:
                    51:a8:7d:10:fe:27:02:c2:06:f4:44:eb:7f:3b:3a:
                    6a:51:4e:28:db:66:d7:cb:af:ec:ba:f9:0c:74:9e:
                    81:4d:56:4b:8e:14:c0:86:35:b1:e9:0b:78:8b:6e:
                    d0:6e:d0:25:5e:47:59:78:f8:a0:e0:1d:c0:1a:a4:
                    98:7b:72:c3:02:0b:2a:9e:ce:3d:c4:f7:28:1a:48:
                    d5:66:7a:1b:58:d0:12:02:e3:ef:d7:eb:58:25:64:
                    e1:f8:80:d2:ca:dd:71:6e:d6:d1:01:35:0e:2b:90:
                    e2:42:99:df:70:9e:81:1a:22:9d:ce:fc:27:33:7d:
                    09:b8:c7:1b:db:da:6b:f1:f2:ef:d9:57:8b:a0:69:
                    4d:83:3f:ab:a0:7d:80:45:5d:06:ec:65:90:f2:db:
                    88:18:8a:25:3a:17:98:34:60:77:06:46:31:34:9a:
                    92:09:b4:86:ab:4c:d4:1a:b1:08:72:5c:7a:8f:40:
                    27:b5:f8:2c:a8:47:01:a9:8f:24:65:e9:c2:2d:fd:
                    97:14:cb
                Exponent: 65537 (0x10001)
        X509v3 extensions:
            X509v3 Subject Key Identifier: 
                F1:6F:B2:40:7F:BF:61:87:59:D1:6B:5C:62:22:06:9E:52:8B:DD:EE
            X509v3 Authority Key Identifier: 
                keyid:FC:79:D0:BE:55:BE:47:5E:EC:25:97:35:37:16:DE:EF:8D:E5:F2:B7

            X509v3 Key Usage: 
                Digital Signature, Non Repudiation, Key Encipherment, Data Encipherment
            X509v3 Extended Key Usage: 
                TLS Web Client Authentication
            X509v3 Basic Constraints: 
                CA:FALSE
            X509v3 Subject Alternative Name: 
                URI:urn:S2OPC:localhost, DNS:localhost
    Signature Algorithm: sha256WithRSAEncryption
         81:c2:ae:a2:e8:6a:1d:92:f9:85:b5:53:b6:37:9d:ce:4d:13:
         01:4e:1d:20:f8:86:e4:38:94:73:cb:ae:52:9d:99:62:fb:0d:
         e2:65:de:cb:ec:5d:ee:48:fd:73:aa:15:f2:5c:a0:1c:6d:2b:
         39:69:1f:16:78:3e:f3:e0:c3:db:a5:e3:a3:dd:1d:f2:10:ef:
         e1:7c:0f:74:4b:4b:cd:35:f1:a5:19:7c:fc:4d:27:26:e6:4d:
         9d:76:b1:3b:fc:6c:4d:e2:67:77:66:c9:cf:62:28:86:06:4f:
         24:e4:c1:6e:55:9e:22:01:00:cc:0e:c9:5e:4e:1d:75:d0:17:
         33:db:46:31:af:c0:c0:8c:c7:16:5c:6e:2b:46:55:c7:71:48:
         67:2d:6d:14:6b:db:38:9d:0c:52:5c:91:a8:cc:07:62:e9:94:
         b5:b6:fc:10:d9:0e:ad:0f:36:f9:8e:1b:cd:26:a0:49:ce:55:
         81:72:ef:d5:99:2b:ac:69:3e:b0:ef:9f:d7:03:8e:45:21:cd:
         14:71:8b:4d:81:d2:7b:3a:6c:4b:71:e7:d5:ff:75:46:8c:b2:
         d2:40:80:e5:5a:b6:6b:5e:d1:11:38:34:80:30:22:d6:b9:c0:
         06:06:50:35:3e:b5:67:47:29:af:d9:97:92:c0:58:3b:5d:3a:
         03:95:30:ba:d9:15:5a:bf:3f:14:d9:41:b7:57:fc:8f:68:c8:
         d5:be:0e:14:f4:cb:4e:b7:87:82:f8:fd:8c:10:e9:bd:d7:19:
         a9:1c:94:f0:f3:04:09:4a:36:bb:f7:46:f1:8d:d8:f1:76:cb:
         c4:0e:5f:70:a6:54:c8:ce:7b:53:81:1b:0c:f8:d1:cc:23:48:
         be:87:f5:fc:51:86:15:0a:f1:7d:34:8e:a3:51:52:64:a1:71:
         9e:55:1d:ba:1c:db:84:06:4c:e2:7c:a1:44:fb:21:30:7d:b9:
         15:9b:b8:b9:b6:02:37:1a:99:51:7e:3a:9a:9d:71:7b:de:1d:
         0e:75:df:56:c4:14:14:97:66:68:74:b4:c6:2c:d4:23:2a:c9:
         9c:5c:fb:28:fd:68:fc:9d:ed:f8:a5:da:96:51:f8:3f:81:29:
         46:e7:cc:a6:ad:2e:12:9a:b8:72:4c:3c:22:24:3a:b9:cd:ea:
         0d:31:1e:a3:ab:f8:92:57:37:a8:d5:70:a3:b3:5e:d0:45:d2:
         f2:93:5c:40:7a:9a:04:6a:fc:9e:de:f6:13:fa:23:05:32:39:
         84:b1:d5:1f:35:5f:cb:c2:4c:40:9f:1e:3c:2c:4b:8e:ad:91:
         b8:f6:bf:e1:b7:b8:29:e2:4b:6b:6b:4a:80:50:1a:a1:2f:a9:
         f3:54:de:48:6f:4d:61:62
-----BEGIN CERTIFICATE-----
MIIGRzCCBC+gAwIBAgICIAAwDQYJKoZIhvcNAQELBQAwgagxCzAJBgNVBAYTAkZS
MQ8wDQYDVQQIDAZGcmFuY2UxETAPBgNVBAoMCFN5c3RlcmVsMTEwLwYDVQQDDChT
Mk9QQyBEZW1vIFVudHJ1c3RlZCBBdXRob3JpdHkgZm9yIFRlc3RzMSgwJgYJKoZI
hvcNAQkBFhlzMm9wYy1zdXBwb3J0QHN5c3RlcmVsLmZyMRgwFgYDVQQHDA9BaXgt
ZW4tUHJvdmVuY2UwHhcNMjMxMDAyMTA1NDE2WhcNMjUxMDAxMTA1NDE2WjCBhTEL
MAkGA1UEBhMCRlIxDzANBgNVBAgMBkZyYW5jZTEYMBYGA1UEBwwPQWl4LWVuLVBy
b3ZlbmNlMREwDwYDVQQKDAhTeXN0ZXJlbDE4MDYGA1UEAwwvUzJPUEMgRGVtbyBU
cnVzdGVkIENlcnRpZmljYXRlIGZvciBDbGllbnQgVGVzdHMwggIiMA0GCSqGSIb3
DQEBAQUAA4ICDwAwggIKAoICAQDF+2ZHvR1lrU9nFSlS9XIwOHdRiWNbEVOW55UI
fKMRjH0+OdWW5oZowT1F/ojTX3t138L7YYbRCHb2Y1ovI7DPnOXLVO1kEvMHGRPE
wuUAwNO/pZn7T0izskvCXYQ8nHGabEIZUXWnnomDYykRE9Zr7RqL2togD7TDefMc
sRuWQkM018DmV1nbpgMXHitFpQkP49KKezuSz7nZ1Q+bBTSxKHStubadT3Wj/G2s
oRQXXo6NUCh1twR6uf1vfkEM0BKNU3vPg6JfY0ahgnXtVxqlFwAbKT+KMi9YUoVJ
bw0txcDY+YArOUwqdr/gnFAoFw06k12JkWN8gDnH3lHpgaiRXbxYkh2v2e2NzQlP
leJrNzqSJcZtJxmgDGcOLDj/ZmhLOtlUWPqkbau+dFX8o12X0i7iMUomWooXWFGo
fRD+JwLCBvRE6387OmpRTijbZtfLr+y6+Qx0noFNVkuOFMCGNbHpC3iLbtBu0CVe
R1l4+KDgHcAapJh7csMCCyqezj3E9ygaSNVmehtY0BIC4+/X61glZOH4gNLK3XFu
1tEBNQ4rkOJCmd9wnoEaIp3O/CczfQm4xxvb2mvx8u/ZV4ugaU2DP6ugfYBFXQbs
ZZDy24gYiiU6F5g0YHcGRjE0mpIJtIarTNQasQhyXHqPQCe1+CyoRwGpjyRl6cIt
/ZcUywIDAQABo4GbMIGYMB0GA1UdDgQWBBTxb7JAf79hh1nRa1xiIgaeUovd7jAf
BgNVHSMEGDAWgBT8edC+Vb5HXuwllzU3Ft7vjeXytzALBgNVHQ8EBAMCBPAwEwYD
VR0lBAwwCgYIKwYBBQUHAwIwCQYDVR0TBAIwADApBgNVHREEIjAghhN1cm46UzJP
UEM6bG9jYWxob3N0gglsb2NhbGhvc3QwDQYJKoZIhvcNAQELBQADggIBAIHCrqLo
ah2S+YW1U7Y3nc5NEwFOHSD4huQ4lHPLrlKdmWL7DeJl3svsXe5I/XOqFfJcoBxt
KzlpHxZ4PvPgw9ul46PdHfIQ7+F8D3RLS8018aUZfPxNJybmTZ12sTv8bE3iZ3dm
yc9iKIYGTyTkwW5VniIBAMwOyV5OHXXQFzPbRjGvwMCMxxZcbitGVcdxSGctbRRr
2zidDFJckajMB2LplLW2/BDZDq0PNvmOG80moEnOVYFy79WZK6xpPrDvn9cDjkUh
zRRxi02B0ns6bEtx59X/dUaMstJAgOVatmte0RE4NIAwIta5wAYGUDU+tWdHKa/Z
l5LAWDtdOgOVMLrZFVq/PxTZQbdX/I9oyNW+DhT0y063h4L4/YwQ6b3XGakclPDz
BAlKNrv3RvGN2PF2y8QOX3CmVMjOe1OBGwz40cwjSL6H9fxRhhUK8X00jqNRUmSh
cZ5VHboc24QGTOJ8oUT7ITB9uRWbuLm2AjcamVF+OpqdcXveHQ5131bEFBSXZmh0
tMYs1CMqyZxc+yj9aPyd7fil2pZR+D+BKUbnzKatLhKauHJMPCIkOrnN6g0xHqOr
+JJXN6jVcKOzXtBF0vKTXEB6mgRq/J7e9hP6IwUyOYSx1R81X8vCTECfHjwsS46t
kbj2v+G3uCniS2trSoBQGqEvqfNU3khvTWFi
-----END CERTIFICATE-----
