Certificate:
    Data:
        Version: 3 (0x2)
        Serial Number: 8193 (0x2001)
        Signature Algorithm: sha256WithRSAEncryption
        Issuer: C=FR, ST=France, O=Systerel, CN=S2OPC Demo Untrusted Authority for Tests/emailAddress=s2opc-support@systerel.fr, L=Aix-en-Provence
        Validity
            Not Before: Oct  2 10:54:19 2023 GMT
            Not After : Oct  1 10:54:19 2025 GMT
        Subject: C=FR, ST=France, L=Aix-en-Provence, O=Systerel, CN=S2OPC Demo Trusted Certificate for Server Tests
        Subject Public Key Info:
            Public Key Algorithm: rsaEncryption
                RSA Public-Key: (4096 bit)
                Modulus:
                    00:d6:bd:ad:cc:a4:81:27:4c:93:a6:de:10:0f:77:
                    4d:ec:47:df:92:18:87:25:1a:e6:c3:f7:f3:ec:27:
                    06:20:04:9a:3f:4e:ef:41:cc:55:32:1a:c4:75:49:
                    52:68:e5:63:1a:39:eb:99:cb:8e:04:52:96:84:e5:
                    f0:86:1f:00:09:69:44:4c:c0:4a:00:5a:dd:61:d4:
                    60:a6:cd:a9:b5:97:40:db:d9:91:a7:ea:a8:1b:3b:
                    77:9c:30:25:ef:ea:ff:46:5a:82:14:d8:0f:66:22:
                    9b:c6:43:56:84:72:c2:61:03:9c:01:06:2d:e1:37:
                    ff:75:0a:2f:09:80:3e:ac:dc:e5:7a:c8:07:7c:d3:
                    af:75:bb:e5:19:83:d2:93:9e:36:29:a7:dc:39:8f:
                    ae:45:8c:ff:f0:3b:31:36:96:0f:e1:2f:ca:49:71:
                    29:cc:65:2e:28:89:5b:86:12:c1:e4:4e:1b:c1:c0:
                    d4:53:1f:77:88:f2:01:d5:08:9a:03:9d:07:d5:05:
                    2b:2d:e2:69:9f:96:e8:1b:7a:af:56:08:81:dd:08:
                    cc:1a:26:f1:1d:e8:b2:72:a0:7e:2f:e3:74:86:fc:
                    91:e7:c6:41:c6:cb:6e:19:ac:a5:25:60:2d:b2:05:
                    2c:23:a1:d9:e3:bb:df:1d:75:61:e0:7a:83:e4:37:
                    22:3a:cc:f0:34:7d:30:34:4b:d8:5f:68:f6:3e:9b:
                    69:34:b8:33:aa:15:a5:ac:3a:28:a4:32:4a:95:4c:
                    95:99:72:7d:90:41:b2:66:17:df:d7:f1:20:83:3b:
                    17:47:32:11:41:c5:4d:42:a1:e2:fe:53:f7:34:b6:
                    89:57:67:96:6f:26:2d:ee:07:4f:7e:35:5b:9b:4a:
                    0c:0b:9a:13:bc:1f:dc:1b:67:f2:0b:c6:02:ca:f1:
                    70:6a:81:24:dc:6c:97:cd:6a:22:55:ee:32:c4:1c:
                    99:3c:ea:9d:84:5e:a1:63:0d:02:35:f1:d5:75:7f:
                    0f:59:a7:8b:90:50:e0:f2:4a:45:1f:46:50:f1:71:
                    d1:5b:11:13:85:20:c6:eb:07:9b:ea:5a:25:51:af:
                    89:62:42:d6:a3:d5:08:a8:e2:07:08:db:69:b2:a3:
                    b7:1c:de:28:96:f9:ff:ba:6c:d6:73:3c:99:32:5e:
                    ed:0d:d0:b4:7f:95:f9:5e:4a:ad:ea:10:d0:2d:0d:
                    45:c2:0a:61:42:ff:fa:13:d6:d5:6d:64:78:c4:6d:
                    35:25:05:19:36:f4:ff:6a:b3:f2:17:52:8d:b4:2c:
                    fc:b8:f1:6f:c6:25:5c:fd:21:01:5f:ff:4a:02:8f:
                    4a:3f:a7:d9:1b:38:ed:cf:a9:c0:7a:33:3b:84:bd:
                    52:eb:5b
                Exponent: 65537 (0x10001)
        X509v3 extensions:
            X509v3 Subject Key Identifier: 
                79:5F:60:8B:69:5F:F8:6A:16:B0:36:D8:46:DF:0A:26:FF:06:83:71
            X509v3 Authority Key Identifier: 
                keyid:FC:79:D0:BE:55:BE:47:5E:EC:25:97:35:37:16:DE:EF:8D:E5:F2:B7

            X509v3 Key Usage: 
                Digital Signature, Non Repudiation, Key Encipherment, Data Encipherment
            X509v3 Extended Key Usage: 
                TLS Web Server Authentication
            X509v3 Basic Constraints: 
                CA:FALSE
            X509v3 Subject Alternative Name: 
                URI:urn:S2OPC:localhost, DNS:localhost
    Signature Algorithm: sha256WithRSAEncryption
         28:07:00:ca:7d:59:d1:35:f5:c5:bd:89:1a:33:af:c3:5a:4d:
         c2:bf:63:b2:f4:2e:f6:ba:a2:c3:52:15:50:53:51:5d:a7:22:
         25:8a:d7:94:c2:b1:0c:be:18:d4:c5:91:a7:ad:ba:c4:ba:f4:
         ad:a5:f1:57:04:eb:81:c9:16:14:71:67:0e:cf:69:a9:c0:9f:
         f9:86:01:5b:ee:ba:3f:2f:ff:03:d1:40:52:c3:98:be:68:c0:
         9e:72:30:28:61:fc:54:36:33:27:3c:00:0a:8d:19:10:22:7c:
         72:8d:80:61:9e:00:50:a8:5d:6c:9e:b9:06:aa:78:c7:d0:f4:
         59:91:18:34:9a:4f:ca:f7:66:6f:79:b5:ad:bc:14:85:80:77:
         6d:0e:b3:a2:e8:43:1b:e8:4a:ea:5b:ef:f4:87:38:7b:18:22:
         53:4d:6d:a5:16:a2:bc:45:4a:86:4f:ef:fb:d4:bd:c4:1e:d9:
         1c:90:d9:92:b8:1f:d2:35:1d:83:47:26:d6:0f:fc:2d:6f:05:
         58:45:6a:79:82:61:0e:e2:d6:2b:82:af:2a:3b:31:e4:00:51:
         07:64:0e:96:d3:47:ea:95:b4:fb:0c:cc:86:6b:d7:c8:a6:57:
         89:51:fd:ba:4e:16:1c:72:b0:1e:4f:6a:90:a7:f6:9a:3d:b5:
         f3:69:c4:16:bd:a7:82:11:67:0b:45:fd:e1:1d:35:2e:7d:01:
         0f:1d:4f:65:5e:a0:e2:48:4c:0b:f5:d2:d4:85:4e:c3:a7:12:
         bf:77:24:c0:53:04:21:93:85:b4:f8:7d:4d:6a:25:3b:47:b3:
         d8:e8:d4:b6:63:6e:88:ec:38:12:20:84:a7:c6:d2:fc:99:30:
         5d:a9:36:05:a5:36:49:8e:f5:72:7d:c1:d7:fc:59:a7:46:1f:
         85:df:7b:55:b5:f4:f3:27:6a:ba:23:51:8b:af:ca:19:d0:39:
         0f:1f:07:e7:10:c8:49:d7:a3:70:74:74:be:5d:e5:79:c4:c3:
         20:88:43:9e:0b:32:81:12:5f:56:92:4c:70:2a:12:df:b6:ea:
         31:55:3b:2e:68:f3:e7:2d:50:13:b2:f6:51:b7:89:14:cc:25:
         3f:10:82:39:0e:fa:eb:3a:86:04:20:09:90:d6:42:a6:78:1f:
         68:f1:49:53:52:64:88:87:cc:b5:ba:e3:8b:34:15:e3:79:13:
         31:74:b4:cc:61:b3:e4:2b:f1:8c:0d:08:65:53:b8:29:40:d4:
         19:93:e5:4d:e1:a2:af:c7:86:6b:eb:4d:ae:eb:25:8c:1d:5f:
         6e:09:0f:b7:01:55:b5:d4:7d:a1:57:2e:34:12:b9:c2:b7:19:
         78:20:ba:7f:9c:ce:7c:d8
-----BEGIN CERTIFICATE-----
MIIGRzCCBC+gAwIBAgICIAEwDQYJKoZIhvcNAQELBQAwgagxCzAJBgNVBAYTAkZS
MQ8wDQYDVQQIDAZGcmFuY2UxETAPBgNVBAoMCFN5c3RlcmVsMTEwLwYDVQQDDChT
Mk9QQyBEZW1vIFVudHJ1c3RlZCBBdXRob3JpdHkgZm9yIFRlc3RzMSgwJgYJKoZI
hvcNAQkBFhlzMm9wYy1zdXBwb3J0QHN5c3RlcmVsLmZyMRgwFgYDVQQHDA9BaXgt
ZW4tUHJvdmVuY2UwHhcNMjMxMDAyMTA1NDE5WhcNMjUxMDAxMTA1NDE5WjCBhTEL
MAkGA1UEBhMCRlIxDzANBgNVBAgMBkZyYW5jZTEYMBYGA1UEBwwPQWl4LWVuLVBy
b3ZlbmNlMREwDwYDVQQKDAhTeXN0ZXJlbDE4MDYGA1UEAwwvUzJPUEMgRGVtbyBU
cnVzdGVkIENlcnRpZmljYXRlIGZvciBTZXJ2ZXIgVGVzdHMwggIiMA0GCSqGSIb3
DQEBAQUAA4ICDwAwggIKAoICAQDWva3MpIEnTJOm3hAPd03sR9+SGIclGubD9/Ps
JwYgBJo/Tu9BzFUyGsR1SVJo5WMaOeuZy44EUpaE5fCGHwAJaURMwEoAWt1h1GCm
zam1l0Db2ZGn6qgbO3ecMCXv6v9GWoIU2A9mIpvGQ1aEcsJhA5wBBi3hN/91Ci8J
gD6s3OV6yAd80691u+UZg9KTnjYpp9w5j65FjP/wOzE2lg/hL8pJcSnMZS4oiVuG
EsHkThvBwNRTH3eI8gHVCJoDnQfVBSst4mmflugbeq9WCIHdCMwaJvEd6LJyoH4v
43SG/JHnxkHGy24ZrKUlYC2yBSwjodnju98ddWHgeoPkNyI6zPA0fTA0S9hfaPY+
m2k0uDOqFaWsOiikMkqVTJWZcn2QQbJmF9/X8SCDOxdHMhFBxU1CoeL+U/c0tolX
Z5ZvJi3uB09+NVubSgwLmhO8H9wbZ/ILxgLK8XBqgSTcbJfNaiJV7jLEHJk86p2E
XqFjDQI18dV1fw9Zp4uQUODySkUfRlDxcdFbEROFIMbrB5vqWiVRr4liQtaj1Qio
4gcI22myo7cc3iiW+f+6bNZzPJkyXu0N0LR/lfleSq3qENAtDUXCCmFC//oT1tVt
ZHjEbTUlBRk29P9qs/IXUo20LPy48W/GJVz9IQFf/0oCj0o/p9kbOO3PqcB6MzuE
vVLrWwIDAQABo4GbMIGYMB0GA1UdDgQWBBR5X2CLaV/4ahawNthG3wom/waDcTAf
BgNVHSMEGDAWgBT8edC+Vb5HXuwllzU3Ft7vjeXytzALBgNVHQ8EBAMCBPAwEwYD
VR0lBAwwCgYIKwYBBQUHAwEwCQYDVR0TBAIwADApBgNVHREEIjAghhN1cm46UzJP
UEM6bG9jYWxob3N0gglsb2NhbGhvc3QwDQYJKoZIhvcNAQELBQADggIBACgHAMp9
WdE19cW9iRozr8NaTcK/Y7L0Lva6osNSFVBTUV2nIiWK15TCsQy+GNTFkaetusS6
9K2l8VcE64HJFhRxZw7PaanAn/mGAVvuuj8v/wPRQFLDmL5owJ5yMChh/FQ2Myc8
AAqNGRAifHKNgGGeAFCoXWyeuQaqeMfQ9FmRGDSaT8r3Zm95ta28FIWAd20Os6Lo
QxvoSupb7/SHOHsYIlNNbaUWorxFSoZP7/vUvcQe2RyQ2ZK4H9I1HYNHJtYP/C1v
BVhFanmCYQ7i1iuCryo7MeQAUQdkDpbTR+qVtPsMzIZr18imV4lR/bpOFhxysB5P
apCn9po9tfNpxBa9p4IRZwtF/eEdNS59AQ8dT2VeoOJITAv10tSFTsOnEr93JMBT
BCGThbT4fU1qJTtHs9jo1LZjbojsOBIghKfG0vyZMF2pNgWlNkmO9XJ9wdf8WadG
H4Xfe1W19PMnarojUYuvyhnQOQ8fB+cQyEnXo3B0dL5d5XnEwyCIQ54LMoESX1aS
THAqEt+26jFVOy5o8+ctUBOy9lG3iRTMJT8QgjkO+us6hgQgCZDWQqZ4H2jxSVNS
ZIiHzLW644s0FeN5EzF0tMxhs+Qr8YwNCGVTuClA1BmT5U3hoq/HhmvrTa7rJYwd
X24JD7cBVbXUfaFXLjQSucK3GXggun+cznzY
-----END CERTIFICATE-----
