Certificate:
    Data:
        Version: 3 (0x2)
        Serial Number: 16385 (0x4001)
        Signature Algorithm: sha256WithRSAEncryption
        Issuer: C=FR, ST=France, L=Aix-en-Provence, O=Systerel, CN=S2OPC Demo Intermediate Server Authority for Tests
        Validity
            Not Before: Jan 22 17:20:11 2025 GMT
            Not After : Jan 20 17:20:11 2035 GMT
        Subject: C=FR, ST=France, L=Aix-en-Provence, O=Systerel, CN=S2OPC Demo Int Certificate for Server Tests
        Subject Public Key Info:
            Public Key Algorithm: rsaEncryption
                Public-Key: (4096 bit)
                Modulus:
                    00:d7:fb:11:24:4c:b2:34:30:c3:a0:02:9d:bc:7a:
                    42:22:aa:ac:62:6e:e8:f4:a1:a5:fe:f5:fa:2a:19:
                    2c:ff:af:27:07:6e:a3:2f:f6:71:f8:fb:24:54:19:
                    99:d1:2c:b3:cc:15:64:e3:ed:c1:64:5c:68:f5:19:
                    88:50:d2:93:4e:91:02:6c:a5:03:2d:46:31:34:58:
                    8f:27:b0:a8:36:3b:72:64:0a:71:c9:6d:e2:28:66:
                    34:c9:0b:88:b6:99:04:07:aa:4f:6a:04:50:cf:85:
                    62:00:2d:a1:de:8a:11:99:96:bf:74:c0:28:b1:22:
                    ac:62:d0:60:47:fa:a8:b6:d6:80:7f:bb:4e:c0:3d:
                    13:5e:af:65:25:e9:f6:a4:b9:c9:a2:c7:8b:8a:ce:
                    a6:51:10:d4:49:22:f3:6f:51:b8:e5:28:19:51:5b:
                    80:3b:41:60:5b:d6:f8:0f:2b:12:37:f9:60:07:98:
                    e9:1f:8b:15:64:32:db:ae:17:e6:db:b1:89:4d:35:
                    78:72:5e:57:33:b3:9f:32:e8:81:53:52:1e:b0:c7:
                    ff:ba:2f:86:5b:57:de:08:41:cb:89:f6:d5:7d:7f:
                    db:3e:f3:0d:cd:46:23:4c:46:e9:31:9d:79:30:4c:
                    09:3e:67:fc:b2:74:6a:a9:3f:04:6f:7f:32:d9:71:
                    5e:0e:7d:25:95:a2:cd:cc:08:c9:0a:e5:53:09:11:
                    02:6f:04:ac:18:69:d6:2b:1d:25:e3:f2:df:17:29:
                    05:9a:99:5e:c5:26:af:d8:d8:27:6d:f3:fc:67:be:
                    0b:5c:dd:83:2e:69:be:99:5a:68:7f:ab:66:86:84:
                    75:d0:1e:77:bf:00:fe:d5:39:df:09:93:6f:18:b9:
                    d9:13:e7:7f:43:6a:ef:b3:b5:03:86:d7:1c:14:6d:
                    b7:43:39:27:cb:20:99:b2:4a:55:86:4e:3d:ae:d7:
                    fd:c8:e1:b3:c2:91:27:58:37:89:2d:9a:38:0d:39:
                    ff:9d:8d:8f:a6:30:f0:e3:76:f0:45:a7:78:66:ec:
                    e7:6a:c8:c5:48:58:03:54:cb:1d:24:a4:c2:87:7c:
                    0e:e5:7c:fa:40:07:d6:08:af:3c:d6:fc:79:37:ac:
                    1b:0a:a7:d0:ea:40:30:c2:02:b7:31:ef:ba:a4:d3:
                    88:ab:17:84:e8:28:62:63:92:9f:04:3e:ae:b7:94:
                    e4:e6:46:b2:96:11:3d:b8:32:fc:24:76:56:76:9d:
                    72:84:f5:b6:03:da:20:5f:03:d7:65:a8:f8:1f:6e:
                    db:6b:c7:0c:56:fd:fc:04:e1:81:46:ec:e2:e5:39:
                    97:4f:bd:ca:52:92:09:83:8d:2a:05:55:20:69:16:
                    f5:6b:d3
                Exponent: 65537 (0x10001)
        X509v3 extensions:
            X509v3 Subject Key Identifier: 
                24:F1:A1:FE:1C:0C:56:D7:AB:69:68:86:30:95:C1:2A:B0:E9:10:AB
            X509v3 Authority Key Identifier: 
                72:97:D2:EA:E3:75:9B:D8:F6:B2:AE:BB:27:29:A9:A7:E8:7A:47:B0
            X509v3 Key Usage: 
                Digital Signature, Non Repudiation, Key Encipherment, Data Encipherment
            X509v3 Extended Key Usage: 
                TLS Web Server Authentication
            X509v3 Basic Constraints: 
                CA:FALSE
            X509v3 Subject Alternative Name: 
                URI:urn:S2OPC:localhost, DNS:localhost
    Signature Algorithm: sha256WithRSAEncryption
    Signature Value:
        10:03:76:fb:24:c7:30:e6:d5:3f:59:1a:60:e9:1d:9e:3e:8e:
        15:ab:5e:64:58:28:a3:db:9f:6c:99:e4:f6:2e:37:10:ee:01:
        c5:9b:13:b5:02:cb:3a:07:4d:42:a1:f3:13:34:12:39:ee:dd:
        32:e1:59:e0:26:02:c3:b9:5e:74:ad:76:b2:37:93:0f:17:5a:
        ff:c9:f0:1f:e9:c6:a0:af:94:b6:56:39:3e:35:1a:ec:62:d6:
        f1:01:38:25:d1:43:44:fb:d9:14:9e:c1:0d:ac:10:36:56:60:
        c3:6e:49:7d:21:90:4d:42:ba:0b:38:9f:ea:0f:4e:fb:1c:47:
        70:af:08:a6:f5:c0:eb:d5:c8:4f:0e:e9:d8:c0:7f:f3:24:87:
        b4:2a:0e:ab:7f:69:ef:79:d7:e4:df:51:74:6c:3f:3e:0c:03:
        f8:70:57:03:b4:62:ec:c3:2a:70:35:98:a8:2b:6b:e3:40:23:
        11:6d:c2:fa:db:18:c5:04:47:a6:aa:2c:29:05:fa:9d:d5:8f:
        c1:1a:f6:de:74:33:f6:47:7f:29:73:8f:c2:b0:a0:20:c0:67:
        f5:01:ac:ba:45:d8:13:bd:7e:ed:23:3b:c4:4c:7c:8e:a2:1f:
        15:83:79:de:76:e5:49:47:5a:cf:f0:53:1b:78:64:8e:7b:6b:
        52:64:93:1b:51:97:e4:e6:93:08:5f:5f:8e:16:bf:ba:04:e2:
        d0:9b:14:f6:cb:ca:06:71:4d:64:84:15:13:20:7f:2c:25:9b:
        17:21:b8:50:0c:d1:d4:0d:b7:ff:43:9f:b5:a6:bc:b2:2b:e4:
        2a:bb:2e:59:d2:54:1a:8d:d4:2a:d3:85:a3:82:83:42:a1:6d:
        55:53:9d:38:b8:64:fa:79:41:ed:6c:3f:a4:29:3b:40:46:5c:
        aa:fd:dd:97:88:94:09:c0:6d:0c:da:e1:7f:fa:87:3e:d7:5e:
        e4:ec:fa:17:56:88:3b:cc:25:3d:f5:b9:6b:42:39:ac:b7:16:
        72:d5:7e:82:52:bd:5e:ee:3d:ba:84:cc:76:a2:3a:c7:5a:67:
        98:64:0d:a7:7f:85:06:35:6e:8b:4f:55:c7:75:d8:fc:4d:85:
        7e:c3:5d:d8:27:d1:4d:74:56:db:8a:66:e4:91:a9:b7:1d:5f:
        ab:80:4a:d8:88:b0:71:0a:b7:01:5f:36:f1:f3:30:50:92:3d:
        da:84:4a:53:ee:e5:4c:5f:92:c3:02:34:04:95:3a:b3:45:27:
        20:51:a2:dd:79:82:48:d3:e6:ed:ee:a8:f7:f2:82:2c:6c:7f:
        8c:10:dc:fd:65:bc:06:fe:b5:e0:87:ce:00:7d:4a:5d:ec:b7:
        23:11:0b:e2:96:f3:ee:3d
-----BEGIN CERTIFICATE-----
MIIGIzCCBAugAwIBAgICQAEwDQYJKoZIhvcNAQELBQAwgYgxCzAJBgNVBAYTAkZS
MQ8wDQYDVQQIDAZGcmFuY2UxGDAWBgNVBAcMD0FpeC1lbi1Qcm92ZW5jZTERMA8G
A1UECgwIU3lzdGVyZWwxOzA5BgNVBAMMMlMyT1BDIERlbW8gSW50ZXJtZWRpYXRl
IFNlcnZlciBBdXRob3JpdHkgZm9yIFRlc3RzMB4XDTI1MDEyMjE3MjAxMVoXDTM1
MDEyMDE3MjAxMVowgYExCzAJBgNVBAYTAkZSMQ8wDQYDVQQIDAZGcmFuY2UxGDAW
BgNVBAcMD0FpeC1lbi1Qcm92ZW5jZTERMA8GA1UECgwIU3lzdGVyZWwxNDAyBgNV
BAMMK1MyT1BDIERlbW8gSW50IENlcnRpZmljYXRlIGZvciBTZXJ2ZXIgVGVzdHMw
ggIiMA0GCSqGSIb3DQEBAQUAA4ICDwAwggIKAoICAQDX+xEkTLI0MMOgAp28ekIi
qqxibuj0oaX+9foqGSz/rycHbqMv9nH4+yRUGZnRLLPMFWTj7cFkXGj1GYhQ0pNO
kQJspQMtRjE0WI8nsKg2O3JkCnHJbeIoZjTJC4i2mQQHqk9qBFDPhWIALaHeihGZ
lr90wCixIqxi0GBH+qi21oB/u07APRNer2Ul6fakucmix4uKzqZRENRJIvNvUbjl
KBlRW4A7QWBb1vgPKxI3+WAHmOkfixVkMtuuF+bbsYlNNXhyXlczs58y6IFTUh6w
x/+6L4ZbV94IQcuJ9tV9f9s+8w3NRiNMRukxnXkwTAk+Z/yydGqpPwRvfzLZcV4O
fSWVos3MCMkK5VMJEQJvBKwYadYrHSXj8t8XKQWamV7FJq/Y2Cdt8/xnvgtc3YMu
ab6ZWmh/q2aGhHXQHne/AP7VOd8Jk28YudkT539Dau+ztQOG1xwUbbdDOSfLIJmy
SlWGTj2u1/3I4bPCkSdYN4ktmjgNOf+djY+mMPDjdvBFp3hm7OdqyMVIWANUyx0k
pMKHfA7lfPpAB9YIrzzW/Hk3rBsKp9DqQDDCArcx77qk04irF4ToKGJjkp8EPq63
lOTmRrKWET24MvwkdlZ2nXKE9bYD2iBfA9dlqPgfbttrxwxW/fwE4YFG7OLlOZdP
vcpSkgmDjSoFVSBpFvVr0wIDAQABo4GbMIGYMB0GA1UdDgQWBBQk8aH+HAxW16tp
aIYwlcEqsOkQqzAfBgNVHSMEGDAWgBRyl9Lq43Wb2PayrrsnKamn6HpHsDALBgNV
HQ8EBAMCBPAwEwYDVR0lBAwwCgYIKwYBBQUHAwEwCQYDVR0TBAIwADApBgNVHREE
IjAghhN1cm46UzJPUEM6bG9jYWxob3N0gglsb2NhbGhvc3QwDQYJKoZIhvcNAQEL
BQADggIBABADdvskxzDm1T9ZGmDpHZ4+jhWrXmRYKKPbn2yZ5PYuNxDuAcWbE7UC
yzoHTUKh8xM0Ejnu3TLhWeAmAsO5XnStdrI3kw8XWv/J8B/pxqCvlLZWOT41Guxi
1vEBOCXRQ0T72RSewQ2sEDZWYMNuSX0hkE1Cugs4n+oPTvscR3CvCKb1wOvVyE8O
6djAf/Mkh7QqDqt/ae951+TfUXRsPz4MA/hwVwO0YuzDKnA1mKgra+NAIxFtwvrb
GMUER6aqLCkF+p3Vj8Ea9t50M/ZHfylzj8KwoCDAZ/UBrLpF2BO9fu0jO8RMfI6i
HxWDed525UlHWs/wUxt4ZI57a1JkkxtRl+TmkwhfX44Wv7oE4tCbFPbLygZxTWSE
FRMgfywlmxchuFAM0dQNt/9Dn7WmvLIr5Cq7LlnSVBqN1CrThaOCg0KhbVVTnTi4
ZPp5Qe1sP6QpO0BGXKr93ZeIlAnAbQza4X/6hz7XXuTs+hdWiDvMJT31uWtCOay3
FnLVfoJSvV7uPbqEzHaiOsdaZ5hkDad/hQY1botPVcd12PxNhX7DXdgn0U10VtuK
ZuSRqbcdX6uAStiIsHEKtwFfNvHzMFCSPdqESlPu5UxfksMCNASVOrNFJyBRot15
gkjT5u3uqPfygixsf4wQ3P1lvAb+teCHzgB9Sl3styMRC+KW8+49
-----END CERTIFICATE-----
