Certificate:
    Data:
        Version: 3 (0x2)
        Serial Number: 12289 (0x3001)
        Signature Algorithm: sha256WithRSAEncryption
        Issuer: C=FR, ST=France, L=Aix-en-Provence, O=Systerel, CN=S2OPC Demo Intermediate Client Authority for Tests
        Validity
            Not Before: Jan 22 17:20:04 2025 GMT
            Not After : Jan 20 17:20:04 2035 GMT
        Subject: C=FR, ST=France, L=Aix-en-Provence, O=Systerel, CN=S2OPC Demo Int Certificate for Client tests
        Subject Public Key Info:
            Public Key Algorithm: rsaEncryption
                Public-Key: (4096 bit)
                Modulus:
                    00:d6:37:57:e0:40:d1:29:9f:3c:a4:28:a2:dd:d3:
                    be:9a:37:a5:31:d1:a9:ad:15:78:ae:c1:d3:db:80:
                    3b:84:49:c2:94:e5:bd:89:d4:1d:47:1b:7a:4a:14:
                    e3:c9:74:40:62:fc:d1:68:e0:ba:32:46:d4:9d:a9:
                    cd:86:c3:62:55:6a:de:68:ea:cd:68:20:43:cc:ed:
                    b0:68:09:5a:79:cb:3a:16:34:be:9e:fd:97:55:b4:
                    1f:d3:29:46:e3:52:ce:d4:15:49:64:23:22:ac:a8:
                    42:4b:0a:93:43:1c:91:1d:ad:22:a3:e5:f8:8f:da:
                    84:d1:cc:59:2c:17:32:5f:22:b2:ae:c5:c0:cb:cf:
                    0d:19:63:58:15:47:5c:8e:15:3d:48:03:58:45:ac:
                    6a:dd:80:3d:d8:58:59:cf:8e:cd:af:36:02:45:9b:
                    b2:7f:0c:75:99:4d:af:8a:74:64:c5:8b:c4:fa:c2:
                    fe:ec:e5:44:12:12:f1:49:5f:1d:07:48:e7:d9:8a:
                    14:d9:d6:ad:0f:26:d1:77:ac:53:a2:74:5f:ad:4b:
                    3b:47:a6:fe:2d:ed:ec:65:76:d2:39:b6:7c:e8:42:
                    0f:fd:ca:bc:e8:be:8d:4f:b9:c2:b6:19:bf:9d:f4:
                    89:65:90:6d:23:88:9c:d3:1b:f8:74:06:bb:82:20:
                    ff:6a:81:a6:06:32:4c:bc:ff:6b:fd:76:c8:54:0b:
                    40:f0:96:8a:0a:8b:9d:0e:e1:ce:ef:a9:99:72:9f:
                    52:98:03:42:c5:86:a4:7f:56:14:df:2e:15:4a:c9:
                    35:69:a0:53:83:e5:5e:da:88:2a:ba:ab:97:c3:c8:
                    da:71:42:69:09:24:85:7f:44:ac:74:27:a0:81:00:
                    b7:74:39:0e:5b:7e:25:b3:63:d6:f9:86:de:62:ff:
                    3f:ab:27:ef:8f:e0:06:1f:b5:4c:ac:b6:a1:1b:35:
                    21:bd:be:06:d2:ac:85:e7:48:f8:c1:4e:0c:d7:2d:
                    26:a7:6a:57:69:24:9b:a5:5c:68:5e:f5:d3:1c:2e:
                    eb:d6:2d:25:d4:39:7f:80:e4:50:17:f3:c2:9a:fb:
                    2d:ad:14:bb:57:6a:2c:b8:8b:83:62:ac:74:73:8b:
                    7d:ad:5d:bf:cc:3d:be:b3:ed:d2:b0:8d:74:60:25:
                    a8:85:d4:62:2e:e7:b6:83:5a:05:6e:cb:84:36:e7:
                    7b:8b:c6:9f:5a:a4:65:4e:1f:97:3f:a1:99:46:26:
                    f0:8e:e2:3d:7c:f4:c7:d8:d0:a3:d7:51:3d:79:b6:
                    1f:88:4a:f8:19:4a:06:ed:3e:b3:f3:91:46:70:dd:
                    28:da:c7:84:40:12:f1:17:ca:cb:28:77:1f:55:b5:
                    83:4c:2d
                Exponent: 65537 (0x10001)
        X509v3 extensions:
            X509v3 Subject Key Identifier: 
                F6:E0:60:C1:D3:5C:45:70:73:FB:94:4A:86:94:6A:D1:68:70:33:FF
            X509v3 Authority Key Identifier: 
                56:F2:63:31:6C:20:EB:3F:0F:79:49:58:77:EF:83:5E:AC:BC:D4:6A
            X509v3 Key Usage: 
                Digital Signature, Non Repudiation, Key Encipherment, Data Encipherment
            X509v3 Extended Key Usage: 
                TLS Web Client Authentication
            X509v3 Basic Constraints: 
                CA:FALSE
            X509v3 Subject Alternative Name: 
                URI:urn:S2OPC:localhost, DNS:localhost
    Signature Algorithm: sha256WithRSAEncryption
    Signature Value:
        7a:66:e4:f1:40:92:7b:9f:fe:6b:e7:c8:e4:b0:34:f6:27:d7:
        7c:67:bb:32:c8:70:4b:b9:c5:c8:01:86:f9:34:91:a3:fc:6a:
        96:bb:28:86:c5:fc:c2:fb:3e:fa:29:a4:02:c9:e9:fb:5f:b9:
        81:68:65:df:6b:0e:9e:9c:84:3f:91:cb:eb:fc:03:36:ac:0e:
        8f:99:62:b0:1d:55:75:b0:ae:cc:d5:5d:09:8e:97:0a:27:ed:
        f2:15:4b:c9:49:c4:fc:45:8b:ac:51:70:d4:f9:cf:52:cf:6c:
        03:8b:69:d8:89:e8:01:67:eb:ca:eb:87:5f:f7:64:6d:5a:01:
        87:64:c3:5d:97:72:94:aa:c4:5f:98:5c:99:53:b4:24:d6:8b:
        80:58:7d:5e:b7:5a:3a:2b:78:52:b4:8c:2b:ae:c7:16:46:5b:
        71:7e:25:3c:ac:f7:ef:ea:51:40:fa:41:8c:78:4a:55:c9:ff:
        9e:8a:fd:1d:e6:44:a6:5f:5c:6e:48:b8:d5:10:a7:55:b8:74:
        53:84:ec:c8:0e:e3:63:f9:de:44:14:da:35:40:93:26:e5:da:
        9a:9e:ad:88:97:de:8a:63:03:30:63:0b:71:6f:45:4a:43:a9:
        a2:f8:59:9a:89:b2:58:b0:f1:be:4d:9f:23:64:34:2d:82:99:
        59:e5:da:97:e0:f6:eb:73:0a:f8:89:8d:ae:0e:ad:c4:11:fa:
        10:69:34:42:a2:5d:af:9a:12:62:5a:e3:b4:0e:03:fb:37:a3:
        73:71:da:ce:55:9f:27:9f:38:cf:43:15:f8:39:8d:8f:55:30:
        73:33:7d:df:2b:d5:f4:8b:30:be:23:1a:86:67:04:71:fe:84:
        90:97:e8:a7:52:6e:7c:e7:c2:98:b9:5b:13:d2:de:59:d7:c6:
        c9:55:2a:33:42:da:52:51:fa:5d:0d:17:33:35:3f:81:b5:05:
        cf:b4:27:b5:ea:e4:f6:4a:3e:25:0a:8e:2f:27:9e:1c:25:b8:
        62:97:5b:3c:3e:dd:97:74:97:b6:50:12:9b:90:9d:e6:63:73:
        6c:c4:31:46:da:d4:1b:fa:f1:7c:a3:f1:f6:8b:1c:d8:ac:f3:
        6e:5c:38:70:58:20:5d:76:af:51:40:91:4f:f2:b7:12:d4:73:
        c4:e8:c4:aa:dd:16:3f:8c:79:4d:e9:37:96:9f:51:59:d3:95:
        25:86:4f:39:47:b5:c7:3b:6c:52:10:11:2f:38:4d:06:f4:df:
        12:49:16:34:3c:ce:1e:bd:40:a2:3a:91:4c:df:70:fe:6d:2f:
        04:39:c5:00:92:fe:5c:f8:20:75:c3:f1:e8:10:81:80:c5:92:
        c1:36:ca:09:09:05:c1:29
-----BEGIN CERTIFICATE-----
MIIGIzCCBAugAwIBAgICMAEwDQYJKoZIhvcNAQELBQAwgYgxCzAJBgNVBAYTAkZS
MQ8wDQYDVQQIDAZGcmFuY2UxGDAWBgNVBAcMD0FpeC1lbi1Qcm92ZW5jZTERMA8G
A1UECgwIU3lzdGVyZWwxOzA5BgNVBAMMMlMyT1BDIERlbW8gSW50ZXJtZWRpYXRl
IENsaWVudCBBdXRob3JpdHkgZm9yIFRlc3RzMB4XDTI1MDEyMjE3MjAwNFoXDTM1
MDEyMDE3MjAwNFowgYExCzAJBgNVBAYTAkZSMQ8wDQYDVQQIDAZGcmFuY2UxGDAW
BgNVBAcMD0FpeC1lbi1Qcm92ZW5jZTERMA8GA1UECgwIU3lzdGVyZWwxNDAyBgNV
BAMMK1MyT1BDIERlbW8gSW50IENlcnRpZmljYXRlIGZvciBDbGllbnQgdGVzdHMw
ggIiMA0GCSqGSIb3DQEBAQUAA4ICDwAwggIKAoICAQDWN1fgQNEpnzykKKLd076a
N6Ux0amtFXiuwdPbgDuEScKU5b2J1B1HG3pKFOPJdEBi/NFo4LoyRtSdqc2Gw2JV
at5o6s1oIEPM7bBoCVp5yzoWNL6e/ZdVtB/TKUbjUs7UFUlkIyKsqEJLCpNDHJEd
rSKj5fiP2oTRzFksFzJfIrKuxcDLzw0ZY1gVR1yOFT1IA1hFrGrdgD3YWFnPjs2v
NgJFm7J/DHWZTa+KdGTFi8T6wv7s5UQSEvFJXx0HSOfZihTZ1q0PJtF3rFOidF+t
SztHpv4t7exldtI5tnzoQg/9yrzovo1PucK2Gb+d9IllkG0jiJzTG/h0BruCIP9q
gaYGMky8/2v9dshUC0DwlooKi50O4c7vqZlyn1KYA0LFhqR/VhTfLhVKyTVpoFOD
5V7aiCq6q5fDyNpxQmkJJIV/RKx0J6CBALd0OQ5bfiWzY9b5ht5i/z+rJ++P4AYf
tUystqEbNSG9vgbSrIXnSPjBTgzXLSanaldpJJulXGhe9dMcLuvWLSXUOX+A5FAX
88Ka+y2tFLtXaiy4i4NirHRzi32tXb/MPb6z7dKwjXRgJaiF1GIu57aDWgVuy4Q2
53uLxp9apGVOH5c/oZlGJvCO4j189MfY0KPXUT15th+ISvgZSgbtPrPzkUZw3Sja
x4RAEvEXyssodx9VtYNMLQIDAQABo4GbMIGYMB0GA1UdDgQWBBT24GDB01xFcHP7
lEqGlGrRaHAz/zAfBgNVHSMEGDAWgBRW8mMxbCDrPw95SVh374NerLzUajALBgNV
HQ8EBAMCBPAwEwYDVR0lBAwwCgYIKwYBBQUHAwIwCQYDVR0TBAIwADApBgNVHREE
IjAghhN1cm46UzJPUEM6bG9jYWxob3N0gglsb2NhbGhvc3QwDQYJKoZIhvcNAQEL
BQADggIBAHpm5PFAknuf/mvnyOSwNPYn13xnuzLIcEu5xcgBhvk0kaP8apa7KIbF
/ML7PvoppALJ6ftfuYFoZd9rDp6chD+Ry+v8AzasDo+ZYrAdVXWwrszVXQmOlwon
7fIVS8lJxPxFi6xRcNT5z1LPbAOLadiJ6AFn68rrh1/3ZG1aAYdkw12XcpSqxF+Y
XJlTtCTWi4BYfV63WjoreFK0jCuuxxZGW3F+JTys9+/qUUD6QYx4SlXJ/56K/R3m
RKZfXG5IuNUQp1W4dFOE7MgO42P53kQU2jVAkybl2pqerYiX3opjAzBjC3FvRUpD
qaL4WZqJsliw8b5NnyNkNC2CmVnl2pfg9utzCviJja4OrcQR+hBpNEKiXa+aEmJa
47QOA/s3o3Nx2s5VnyefOM9DFfg5jY9VMHMzfd8r1fSLML4jGoZnBHH+hJCX6KdS
bnznwpi5WxPS3lnXxslVKjNC2lJR+l0NFzM1P4G1Bc+0J7Xq5PZKPiUKji8nnhwl
uGKXWzw+3Zd0l7ZQEpuQneZjc2zEMUba1Bv68Xyj8faLHNis825cOHBYIF12r1FA
kU/ytxLUc8ToxKrdFj+MeU3pN5afUVnTlSWGTzlHtcc7bFIQES84TQb03xJJFjQ8
zh69QKI6kUzfcP5tLwQ5xQCS/lz4IHXD8egQgYDFksE2ygkJBcEp
-----END CERTIFICATE-----
