Certificate:
    Data:
        Version: 3 (0x2)
        Serial Number: 11 (0xb)
        Signature Algorithm: sha256WithRSAEncryption
        Issuer: C=FR, ST=France, O=Systerel, CN=S2OPC Century Certificate Authority for Tests/emailAddress=s2opc-support@systerel.fr
        Validity
            Not Before: Jan 23 14:19:48 2025 GMT
            Not After : Dec 30 14:19:48 2124 GMT
        Subject: C=FR, ST=France, L=Aix-en-Provence, O=Systerel, CN=S2OPC Demo Intermediate Server Authority for Tests
        Subject Public Key Info:
            Public Key Algorithm: rsaEncryption
                Public-Key: (4096 bit)
                Modulus:
                    00:ec:b6:df:16:3a:35:03:f2:ac:e7:50:18:f1:bb:
                    d3:5e:b3:7e:d0:85:eb:87:8f:94:45:b6:88:a9:c2:
                    58:7c:6b:20:cb:b4:1a:19:40:6d:48:e0:92:65:a2:
                    75:3e:34:03:a0:f0:ca:44:0d:ae:6d:7b:2e:2d:02:
                    35:62:d2:a1:02:8b:6d:d2:99:ae:14:d2:da:12:41:
                    18:86:3a:8e:12:3b:82:4d:25:40:cd:14:58:b6:8f:
                    99:02:8a:24:3c:4b:10:a9:10:22:54:53:60:70:e4:
                    ce:02:15:ef:90:1f:7b:7f:57:0d:24:70:e9:86:59:
                    df:a8:97:a1:34:60:bb:8e:c4:a1:fd:96:ba:d9:4b:
                    0b:05:4c:82:7d:23:15:34:4d:e9:2d:7a:d2:82:05:
                    0a:13:25:03:6d:35:98:17:98:3a:08:e9:12:0a:36:
                    3f:b9:58:8f:96:dd:48:05:a1:17:09:99:ed:79:52:
                    5b:d6:08:56:17:54:f6:e8:15:89:b9:90:64:da:fb:
                    37:50:e8:c4:f4:bd:35:eb:6c:65:6b:42:ca:1c:f2:
                    85:bd:ed:f9:58:87:8a:87:62:aa:03:79:fb:7e:6d:
                    a1:62:48:93:7d:73:58:6a:60:92:22:e8:01:38:a2:
                    a2:60:a6:39:92:17:e3:47:be:4d:5c:f4:b9:80:c2:
                    05:79:00:a8:ad:d3:48:b1:75:c5:fd:12:a5:74:9f:
                    3a:62:ba:32:de:95:32:a6:7b:2c:e3:7c:9a:15:d8:
                    43:7b:b0:77:d0:76:33:ae:31:2e:2c:06:39:4f:00:
                    3b:69:f7:f3:ba:52:10:dd:28:50:9c:ce:90:24:65:
                    80:fd:c9:6a:ef:94:1b:02:c2:6e:19:4d:98:28:e2:
                    23:31:01:2e:ae:81:74:9b:1f:aa:70:6e:c0:71:8f:
                    b9:da:e4:2b:a2:4e:f6:ad:95:ba:da:97:a2:a7:ee:
                    c7:ad:4a:78:d9:88:6e:84:5e:87:23:24:ab:76:f3:
                    fd:bb:ea:23:ef:03:a7:29:51:7d:56:fd:ad:72:8b:
                    16:cc:fd:cd:dc:d7:12:12:1f:da:04:9b:23:80:5f:
                    01:0a:59:e1:b8:ed:90:4e:2c:27:fb:45:b9:f7:9e:
                    09:9d:2c:bd:1b:b1:6a:b8:dd:4e:aa:49:ce:7d:f5:
                    89:d2:aa:26:30:19:99:9e:bf:7a:1e:eb:97:e0:db:
                    a6:7f:49:1a:6a:9f:9c:ab:02:20:8b:6e:76:d6:2f:
                    9a:4d:d2:0c:8f:ea:80:5f:d6:7b:f3:81:4f:cf:8f:
                    a1:2c:e2:99:a8:56:c1:51:09:9e:5b:a2:4f:d4:e5:
                    03:ec:59:9f:b7:47:a0:60:17:18:c6:22:17:97:4c:
                    74:38:3b
                Exponent: 65537 (0x10001)
        X509v3 extensions:
            X509v3 Subject Key Identifier: 
                72:97:D2:EA:E3:75:9B:D8:F6:B2:AE:BB:27:29:A9:A7:E8:7A:47:B0
            X509v3 Authority Key Identifier: 
                7A:46:CB:D2:2F:30:A4:FF:67:29:13:39:3F:9C:02:BF:03:D0:72:82
            X509v3 Basic Constraints: critical
                CA:TRUE
            X509v3 Key Usage: critical
                Digital Signature, Certificate Sign, CRL Sign
    Signature Algorithm: sha256WithRSAEncryption
    Signature Value:
        32:55:da:c6:0d:75:af:5f:84:60:e0:b3:ee:17:9d:81:e9:3a:
        05:35:28:ae:bc:ba:ad:15:75:bc:03:6c:8c:71:8c:6e:c9:2e:
        a9:f1:0a:a1:5b:61:94:6a:6b:db:c9:1a:94:78:61:b4:ee:7e:
        61:02:b9:fe:95:6a:fd:c4:2b:fb:20:6d:9a:24:15:47:ee:ef:
        ce:45:c1:9f:d6:7e:a3:a2:8d:2a:90:e6:7e:bd:f3:b0:c1:4e:
        09:48:54:33:2d:e3:31:41:0e:ac:c4:08:22:28:63:1e:1a:c6:
        5f:22:5e:f0:58:ab:3b:c0:08:2e:ee:b1:bf:60:cc:78:04:94:
        3c:d3:1c:a0:05:2e:2b:1d:66:c3:22:0a:56:52:9d:ff:4e:a5:
        40:b7:28:ae:69:c9:b0:42:c8:b2:ed:0d:a9:32:8b:f2:9d:a1:
        29:98:4c:0c:5d:f3:e1:ec:26:10:27:72:3c:20:90:b7:9b:4c:
        83:9c:fb:4b:24:37:1b:23:23:92:ef:94:e7:5d:f9:c2:60:a2:
        83:46:5a:39:e5:c4:b1:88:21:4d:0c:e3:da:3d:69:cc:21:60:
        c4:f8:b2:97:6c:96:74:a6:dd:62:9a:1b:ae:c8:4e:a1:d9:6f:
        b0:74:11:d5:d9:82:f1:79:12:01:c5:e4:a2:fc:35:a1:80:2f:
        6a:ae:b0:cf:73:c2:2a:39:8e:72:96:b5:aa:2a:18:cb:3f:df:
        7a:c8:16:b8:66:b0:57:8d:50:48:f9:15:65:bd:45:3b:1d:46:
        9a:0e:2d:84:8f:95:84:a3:ce:ab:a3:41:88:a9:0d:92:b0:fd:
        4e:df:31:9e:be:52:2b:90:dc:e6:a9:8c:c4:b7:b1:1f:14:95:
        f5:3e:62:fc:27:3c:33:b6:45:39:d9:a5:8b:01:b1:09:39:cb:
        93:e1:af:d9:b0:e2:38:f8:c7:e0:14:c0:eb:f0:50:69:96:a2:
        4d:e7:eb:2d:55:44:e2:cb:35:5a:c7:15:3b:37:de:a0:18:ee:
        16:27:16:48:f4:8c:81:66:52:3e:95:84:2a:2c:97:25:8c:13:
        0c:ac:d9:a0:2f:f3:bb:f5:d0:26:17:11:54:bd:f9:8b:a7:e8:
        3f:4b:09:1a:9b:e2:e4:7a:7f:40:32:c9:6c:fa:bc:c0:d9:5e:
        bb:5f:96:43:bf:dc:90:6c:71:b3:a1:8b:48:62:40:da:41:d6:
        a0:a4:d1:90:ab:f0:9d:f9:00:6f:ce:a3:a8:ef:71:a6:17:d9:
        56:c1:9c:87:11:fe:a4:61:a2:2b:59:dd:e3:69:3f:77:63:cd:
        27:dd:62:98:b9:aa:06:0a:99:ef:37:c7:d8:1c:19:06:44:32:
        61:44:bf:d1:07:ed:49:55
-----BEGIN CERTIFICATE-----
MIIF/TCCA+WgAwIBAgIBCzANBgkqhkiG9w0BAQsFADCBkzELMAkGA1UEBhMCRlIx
DzANBgNVBAgMBkZyYW5jZTERMA8GA1UECgwIU3lzdGVyZWwxNjA0BgNVBAMMLVMy
T1BDIENlbnR1cnkgQ2VydGlmaWNhdGUgQXV0aG9yaXR5IGZvciBUZXN0czEoMCYG
CSqGSIb3DQEJARYZczJvcGMtc3VwcG9ydEBzeXN0ZXJlbC5mcjAgFw0yNTAxMjMx
NDE5NDhaGA8yMTI0MTIzMDE0MTk0OFowgYgxCzAJBgNVBAYTAkZSMQ8wDQYDVQQI
DAZGcmFuY2UxGDAWBgNVBAcMD0FpeC1lbi1Qcm92ZW5jZTERMA8GA1UECgwIU3lz
dGVyZWwxOzA5BgNVBAMMMlMyT1BDIERlbW8gSW50ZXJtZWRpYXRlIFNlcnZlciBB
dXRob3JpdHkgZm9yIFRlc3RzMIICIjANBgkqhkiG9w0BAQEFAAOCAg8AMIICCgKC
AgEA7LbfFjo1A/Ks51AY8bvTXrN+0IXrh4+URbaIqcJYfGsgy7QaGUBtSOCSZaJ1
PjQDoPDKRA2ubXsuLQI1YtKhAott0pmuFNLaEkEYhjqOEjuCTSVAzRRYto+ZAook
PEsQqRAiVFNgcOTOAhXvkB97f1cNJHDphlnfqJehNGC7jsSh/Za62UsLBUyCfSMV
NE3pLXrSggUKEyUDbTWYF5g6COkSCjY/uViPlt1IBaEXCZnteVJb1ghWF1T26BWJ
uZBk2vs3UOjE9L0162xla0LKHPKFve35WIeKh2KqA3n7fm2hYkiTfXNYamCSIugB
OKKiYKY5khfjR75NXPS5gMIFeQCordNIsXXF/RKldJ86Yroy3pUypnss43yaFdhD
e7B30HYzrjEuLAY5TwA7affzulIQ3ShQnM6QJGWA/clq75QbAsJuGU2YKOIjMQEu
roF0mx+qcG7AcY+52uQrok72rZW62peip+7HrUp42YhuhF6HIySrdvP9u+oj7wOn
KVF9Vv2tcosWzP3N3NcSEh/aBJsjgF8BClnhuO2QTiwn+0W5954JnSy9G7FquN1O
qknOffWJ0qomMBmZnr96HuuX4Numf0kaap+cqwIgi2521i+aTdIMj+qAX9Z784FP
z4+hLOKZqFbBUQmeW6JP1OUD7Fmft0egYBcYxiIXl0x0ODsCAwEAAaNjMGEwHQYD
VR0OBBYEFHKX0urjdZvY9rKuuycpqafoekewMB8GA1UdIwQYMBaAFHpGy9IvMKT/
ZykTOT+cAr8D0HKCMA8GA1UdEwEB/wQFMAMBAf8wDgYDVR0PAQH/BAQDAgGGMA0G
CSqGSIb3DQEBCwUAA4ICAQAyVdrGDXWvX4Rg4LPuF52B6ToFNSiuvLqtFXW8A2yM
cYxuyS6p8QqhW2GUamvbyRqUeGG07n5hArn+lWr9xCv7IG2aJBVH7u/ORcGf1n6j
oo0qkOZ+vfOwwU4JSFQzLeMxQQ6sxAgiKGMeGsZfIl7wWKs7wAgu7rG/YMx4BJQ8
0xygBS4rHWbDIgpWUp3/TqVAtyiuacmwQsiy7Q2pMovynaEpmEwMXfPh7CYQJ3I8
IJC3m0yDnPtLJDcbIyOS75TnXfnCYKKDRlo55cSxiCFNDOPaPWnMIWDE+LKXbJZ0
pt1imhuuyE6h2W+wdBHV2YLxeRIBxeSi/DWhgC9qrrDPc8IqOY5ylrWqKhjLP996
yBa4ZrBXjVBI+RVlvUU7HUaaDi2Ej5WEo86ro0GIqQ2SsP1O3zGevlIrkNzmqYzE
t7EfFJX1PmL8JzwztkU52aWLAbEJOcuT4a/ZsOI4+MfgFMDr8FBplqJN5+stVUTi
yzVaxxU7N96gGO4WJxZI9IyBZlI+lYQqLJcljBMMrNmgL/O79dAmFxFUvfmLp+g/
Swkam+Lken9AMsls+rzA2V67X5ZDv9yQbHGzoYtIYkDaQdagpNGQq/Cd+QBvzqOo
73GmF9lWwZyHEf6kYaIrWd3jaT93Y80n3WKYuaoGCpnvN8fYHBkGRDJhRL/RB+1J
VQ==
-----END CERTIFICATE-----
