Certificate:
    Data:
        Version: 3 (0x2)
        Serial Number: 5 (0x5)
        Signature Algorithm: sha256WithRSAEncryption
        Issuer: C=FR, ST=France, O=Systerel, CN=S2OPC Century Certificate Authority for Tests/emailAddress=s2opc-support@systerel.fr
        Validity
            Not Before: Oct  3 09:29:33 2023 GMT
            Not After : Oct  2 09:29:33 2025 GMT
        Subject: C=FR, ST=France, L=Aix-en-Provence, O=Systerel, CN=S2OPC Demo Intermediate Server Authority for Tests
        Subject Public Key Info:
            Public Key Algorithm: rsaEncryption
                RSA Public-Key: (4096 bit)
                Modulus:
                    00:a8:ea:6a:59:d6:4c:87:1d:8e:e7:0a:57:66:87:
                    d8:75:5e:8b:fd:1e:10:40:24:af:ef:13:90:d8:89:
                    7b:44:21:70:87:57:42:4a:38:5e:a9:8c:30:a4:d4:
                    84:86:82:df:41:4d:60:ae:13:42:d4:03:f5:51:07:
                    9e:2a:b0:2e:88:3b:32:a5:10:62:9a:f9:ab:01:34:
                    e4:07:a7:5f:97:16:78:9e:07:c4:90:29:83:64:13:
                    c1:f8:ae:a3:00:0e:76:55:6a:b8:76:11:56:f5:20:
                    5b:a7:ef:7b:8d:4a:be:65:8a:6c:2f:67:f0:be:52:
                    4a:bc:f9:4d:dd:c0:b7:87:f2:b8:7e:3c:11:0d:fd:
                    a8:67:32:13:12:db:e6:de:69:da:16:0f:ca:e1:22:
                    cb:7c:23:c4:be:6d:74:23:4d:fa:87:e5:85:25:5f:
                    1e:d1:a9:63:e1:60:d2:80:0f:84:01:d7:91:a6:74:
                    df:c9:82:69:fd:40:91:8b:a8:6c:43:4e:1a:a5:23:
                    5e:9b:b6:3c:59:24:dd:41:a2:0d:eb:5e:bd:7e:46:
                    ed:ff:84:77:01:dc:29:62:73:96:50:f2:c9:d8:ef:
                    02:42:f5:db:5b:88:61:5c:ad:57:8b:cf:b2:02:1d:
                    d0:02:7f:c6:00:32:1e:53:e9:2a:a8:88:09:65:23:
                    cd:f3:a2:10:84:71:37:2d:9b:e8:87:67:92:aa:0f:
                    fc:7e:c9:36:5c:cc:75:ad:bd:41:a4:b8:8e:a8:b5:
                    88:2e:51:62:cb:c0:5a:58:5a:cf:b9:8b:7e:97:0a:
                    77:52:8b:d1:01:6a:7c:16:47:d2:eb:be:bd:f9:ad:
                    4c:5b:0d:1d:be:5c:92:f3:ba:c8:25:d1:19:95:25:
                    ca:dd:5d:cb:a6:6f:1c:06:72:f6:63:5a:b6:ca:aa:
                    79:6b:de:31:38:2b:29:8c:dd:6e:e7:9e:20:f2:00:
                    cd:79:2b:67:c8:22:2d:8e:be:dd:ef:31:fa:10:e3:
                    2b:44:ed:60:32:09:7f:62:c3:36:50:d1:e6:d9:18:
                    3b:d4:02:90:de:f3:83:d6:cf:08:e0:62:63:a8:66:
                    a9:d2:3d:17:fd:dd:59:56:81:7e:72:e3:79:62:0d:
                    dd:c7:cd:97:db:29:ca:b7:90:58:d5:81:bb:2d:6e:
                    7a:0e:9c:77:d5:54:08:98:2a:97:7f:c1:b0:4e:84:
                    d6:d4:dd:90:6f:a9:dc:33:43:43:c2:fd:04:de:a9:
                    1c:58:4b:00:ab:c9:a4:b2:28:0e:63:36:94:18:8e:
                    6c:d4:49:e2:f6:81:46:69:e9:40:fe:59:a7:e0:be:
                    7e:2e:e9:68:e2:67:d2:47:4f:79:28:88:8d:66:1b:
                    24:f7:91
                Exponent: 65537 (0x10001)
        X509v3 extensions:
            X509v3 Subject Key Identifier: 
                20:00:A6:24:2F:69:D2:18:A4:54:54:59:79:14:16:78:94:8B:A3:03
            X509v3 Authority Key Identifier: 
                keyid:7A:46:CB:D2:2F:30:A4:FF:67:29:13:39:3F:9C:02:BF:03:D0:72:82

            X509v3 Basic Constraints: critical
                CA:TRUE
            X509v3 Key Usage: critical
                Digital Signature, Certificate Sign, CRL Sign
    Signature Algorithm: sha256WithRSAEncryption
         57:e3:73:61:bc:26:97:23:66:85:63:d6:53:42:4f:1d:ee:61:
         20:89:70:d8:75:13:3b:d2:62:ab:4c:1c:34:e2:cc:b2:d9:5b:
         b8:39:b1:07:02:1f:35:78:ab:86:c3:75:87:cf:50:f9:57:b0:
         67:25:9b:0b:ef:4a:8e:ae:3c:6f:bf:d5:26:4c:cd:41:75:3e:
         19:8d:57:b5:3c:3f:19:03:6d:2b:2e:5b:05:08:19:1e:2d:d2:
         ca:9a:15:b7:80:e4:1f:a1:58:00:6a:7f:05:0b:97:02:c1:4e:
         ce:e3:73:73:2f:f1:26:9b:d1:59:2b:45:8b:9e:20:cd:69:c5:
         27:3e:27:97:79:72:7b:11:e6:4b:6d:bd:3b:83:25:49:4f:b0:
         2b:ca:36:7f:a4:65:11:a3:11:75:3c:11:a1:9d:f3:91:0d:7b:
         bd:81:3c:e7:66:f4:ba:f8:c1:51:e5:71:76:c9:7c:79:b4:e2:
         14:4f:aa:df:8f:88:b6:3d:b8:9d:23:16:b6:e5:81:e2:e9:2c:
         85:cd:30:8a:16:15:44:30:76:d7:d4:f2:26:72:65:4d:a6:6d:
         72:44:bf:2e:3a:29:71:0d:5b:15:01:d9:77:07:5e:02:7f:93:
         25:69:96:95:9e:0a:45:f3:2b:3c:e1:21:68:0d:4f:92:80:76:
         53:f9:60:b4:d2:f0:9a:98:b1:16:ad:1d:b8:57:13:79:42:12:
         a4:f8:15:f5:5a:5f:8d:26:9e:81:37:0c:9b:84:94:ae:47:0e:
         26:3b:ba:b1:ae:20:0d:b5:af:23:0d:fa:6f:3e:0d:6e:65:f0:
         f6:5a:ad:72:f0:a7:94:55:8a:57:b2:1e:31:46:6c:cf:f1:3f:
         d4:7d:ff:3b:63:35:5c:05:40:a0:cd:fc:b4:69:2f:e3:35:24:
         e7:db:c4:b0:59:0f:9a:5e:67:aa:60:07:e2:fc:6b:5f:54:fc:
         51:8e:6b:09:ce:ff:c4:4d:b0:c0:02:96:87:13:8c:85:cf:99:
         2f:d8:28:58:30:ec:ba:30:b4:84:25:c4:f2:30:ec:e6:09:f2:
         a4:ba:cf:0d:2d:ef:e1:06:35:fb:34:9f:40:5e:11:f3:99:e5:
         82:1e:00:12:44:7b:b7:63:10:f7:31:5c:81:5f:54:ef:98:4f:
         10:88:f6:6d:f7:e6:6f:f0:67:49:58:a6:f3:d9:b2:ea:d6:cf:
         cf:70:23:e9:06:93:e4:a4:c9:15:87:72:93:ee:c5:72:e1:c0:
         2b:9f:3d:d9:33:67:dc:bf:a6:ce:1d:6c:c7:5a:88:54:1a:b0:
         9a:9c:9d:06:51:cb:17:b6:f1:d2:73:98:5c:ab:91:30:7a:28:
         8c:b7:d7:5e:79:3a:d2:e0
-----BEGIN CERTIFICATE-----
MIIF+zCCA+OgAwIBAgIBBTANBgkqhkiG9w0BAQsFADCBkzELMAkGA1UEBhMCRlIx
DzANBgNVBAgMBkZyYW5jZTERMA8GA1UECgwIU3lzdGVyZWwxNjA0BgNVBAMMLVMy
T1BDIENlbnR1cnkgQ2VydGlmaWNhdGUgQXV0aG9yaXR5IGZvciBUZXN0czEoMCYG
CSqGSIb3DQEJARYZczJvcGMtc3VwcG9ydEBzeXN0ZXJlbC5mcjAeFw0yMzEwMDMw
OTI5MzNaFw0yNTEwMDIwOTI5MzNaMIGIMQswCQYDVQQGEwJGUjEPMA0GA1UECAwG
RnJhbmNlMRgwFgYDVQQHDA9BaXgtZW4tUHJvdmVuY2UxETAPBgNVBAoMCFN5c3Rl
cmVsMTswOQYDVQQDDDJTMk9QQyBEZW1vIEludGVybWVkaWF0ZSBTZXJ2ZXIgQXV0
aG9yaXR5IGZvciBUZXN0czCCAiIwDQYJKoZIhvcNAQEBBQADggIPADCCAgoCggIB
AKjqalnWTIcdjucKV2aH2HVei/0eEEAkr+8TkNiJe0QhcIdXQko4XqmMMKTUhIaC
30FNYK4TQtQD9VEHniqwLog7MqUQYpr5qwE05AenX5cWeJ4HxJApg2QTwfiuowAO
dlVquHYRVvUgW6fve41KvmWKbC9n8L5SSrz5Td3At4fyuH48EQ39qGcyExLb5t5p
2hYPyuEiy3wjxL5tdCNN+oflhSVfHtGpY+Fg0oAPhAHXkaZ038mCaf1AkYuobENO
GqUjXpu2PFkk3UGiDetevX5G7f+EdwHcKWJzllDyydjvAkL121uIYVytV4vPsgId
0AJ/xgAyHlPpKqiICWUjzfOiEIRxNy2b6IdnkqoP/H7JNlzMda29QaS4jqi1iC5R
YsvAWlhaz7mLfpcKd1KL0QFqfBZH0uu+vfmtTFsNHb5ckvO6yCXRGZUlyt1dy6Zv
HAZy9mNatsqqeWveMTgrKYzdbueeIPIAzXkrZ8giLY6+3e8x+hDjK0TtYDIJf2LD
NlDR5tkYO9QCkN7zg9bPCOBiY6hmqdI9F/3dWVaBfnLjeWIN3cfNl9spyreQWNWB
uy1ueg6cd9VUCJgql3/BsE6E1tTdkG+p3DNDQ8L9BN6pHFhLAKvJpLIoDmM2lBiO
bNRJ4vaBRmnpQP5Zp+C+fi7paOJn0kdPeSiIjWYbJPeRAgMBAAGjYzBhMB0GA1Ud
DgQWBBQgAKYkL2nSGKRUVFl5FBZ4lIujAzAfBgNVHSMEGDAWgBR6RsvSLzCk/2cp
Ezk/nAK/A9BygjAPBgNVHRMBAf8EBTADAQH/MA4GA1UdDwEB/wQEAwIBhjANBgkq
hkiG9w0BAQsFAAOCAgEAV+NzYbwmlyNmhWPWU0JPHe5hIIlw2HUTO9Jiq0wcNOLM
stlbuDmxBwIfNXirhsN1h89Q+VewZyWbC+9Kjq48b7/VJkzNQXU+GY1XtTw/GQNt
Ky5bBQgZHi3SypoVt4DkH6FYAGp/BQuXAsFOzuNzcy/xJpvRWStFi54gzWnFJz4n
l3lyexHmS229O4MlSU+wK8o2f6RlEaMRdTwRoZ3zkQ17vYE852b0uvjBUeVxdsl8
ebTiFE+q34+Itj24nSMWtuWB4ukshc0wihYVRDB219TyJnJlTaZtckS/LjopcQ1b
FQHZdwdeAn+TJWmWlZ4KRfMrPOEhaA1PkoB2U/lgtNLwmpixFq0duFcTeUISpPgV
9VpfjSaegTcMm4SUrkcOJju6sa4gDbWvIw36bz4NbmXw9lqtcvCnlFWKV7IeMUZs
z/E/1H3/O2M1XAVAoM38tGkv4zUk59vEsFkPml5nqmAH4vxrX1T8UY5rCc7/xE2w
wAKWhxOMhc+ZL9goWDDsujC0hCXE8jDs5gnypLrPDS3v4QY1+zSfQF4R85nlgh4A
EkR7t2MQ9zFcgV9U75hPEIj2bffmb/BnSVim89my6tbPz3Aj6QaT5KTJFYdyk+7F
cuHAK5892TNn3L+mzh1sx1qIVBqwmpydBlHLF7bx0nOYXKuRMHoojLfXXnk60uA=
-----END CERTIFICATE-----
