Certificate:
    Data:
        Version: 3 (0x2)
        Serial Number: 10 (0xa)
        Signature Algorithm: sha256WithRSAEncryption
        Issuer: C=FR, ST=France, O=Systerel, CN=S2OPC Century Certificate Authority for Tests/emailAddress=s2opc-support@systerel.fr
        Validity
            Not Before: Jan 23 14:19:17 2025 GMT
            Not After : Dec 30 14:19:17 2124 GMT
        Subject: C=FR, ST=France, L=Aix-en-Provence, O=Systerel, CN=S2OPC Demo Intermediate Client Authority for Tests
        Subject Public Key Info:
            Public Key Algorithm: rsaEncryption
                Public-Key: (4096 bit)
                Modulus:
                    00:cc:4f:1f:9e:4c:84:a3:84:ac:4d:9f:b1:e5:da:
                    10:0f:a0:76:69:fb:7b:11:f0:01:c7:85:7d:41:75:
                    4f:b4:84:06:a3:53:b4:b6:d0:59:2e:58:2b:d3:61:
                    e5:b4:6f:0d:4b:39:d2:b4:1d:ba:40:86:12:74:9b:
                    5f:2f:b0:a9:9d:a0:de:52:32:0b:4b:16:72:f8:f0:
                    a6:a4:e4:fb:4d:1d:19:15:f5:36:46:5e:7c:9e:a2:
                    b4:68:3c:a2:7f:55:73:d9:5e:4e:63:71:e4:4d:46:
                    c5:34:cf:2e:97:dd:ba:4b:b9:27:1b:7a:72:f9:2c:
                    72:fe:b1:65:27:ed:58:9a:ff:0b:63:2d:85:2b:80:
                    59:f6:69:26:1c:76:be:15:95:f6:ed:ec:0a:66:b4:
                    58:9b:9e:fc:89:62:a2:c3:34:02:37:36:57:3c:a7:
                    26:ac:6e:d9:e2:a6:1a:26:0b:60:1e:99:e7:f6:6d:
                    71:c4:2c:61:07:f8:4a:61:30:0a:59:a4:6a:3b:86:
                    d9:32:40:92:8d:32:65:6b:8b:8b:e6:70:db:a1:3a:
                    8e:e2:92:0b:8f:bf:ad:39:90:5d:ce:dd:49:e4:02:
                    8b:77:c8:b8:9e:7a:e1:91:3c:08:09:aa:b4:81:d3:
                    9c:70:e4:c3:72:f3:9e:a2:ed:54:05:c5:ef:de:ea:
                    27:d2:36:b2:11:13:a6:a8:5d:8e:c9:d0:56:c0:b1:
                    30:42:10:74:3c:33:80:99:08:12:a4:7c:30:5b:03:
                    41:06:6e:40:a7:4a:92:e9:aa:d5:40:62:40:63:8a:
                    5a:43:e2:48:66:81:81:c8:d1:c2:f3:36:87:0e:da:
                    4b:34:56:b4:06:a6:b0:89:76:e7:f5:f0:2e:88:65:
                    a4:8b:16:91:15:5a:f6:49:2c:5c:c8:c7:81:28:8b:
                    61:e6:6d:a9:d4:57:39:53:ac:82:8b:5d:b4:65:46:
                    73:9d:14:29:bb:b0:69:06:ea:7f:9c:ee:47:ba:66:
                    8f:9b:a4:ea:d4:28:7f:b2:fd:a2:56:be:2c:72:df:
                    52:b3:fa:f7:7d:18:2d:e1:b2:74:cb:e7:5a:31:11:
                    b9:e1:9f:d2:0b:e2:03:26:47:64:be:4e:94:e5:1d:
                    73:22:bd:48:3e:8a:b7:4d:b4:18:60:b0:5c:94:87:
                    f0:da:f4:b5:d9:71:60:44:13:6c:bc:b9:30:0b:98:
                    61:fd:57:48:4f:e2:f5:3f:c2:52:9d:5f:f3:3e:0e:
                    80:61:60:86:23:fe:e1:e5:a1:56:c8:18:e1:03:13:
                    88:68:9f:6c:b4:81:2a:92:79:55:9b:9e:b3:ad:59:
                    fa:1a:3d:1c:bb:04:48:26:c2:50:f1:13:30:e7:90:
                    91:d2:99
                Exponent: 65537 (0x10001)
        X509v3 extensions:
            X509v3 Subject Key Identifier: 
                56:F2:63:31:6C:20:EB:3F:0F:79:49:58:77:EF:83:5E:AC:BC:D4:6A
            X509v3 Authority Key Identifier: 
                7A:46:CB:D2:2F:30:A4:FF:67:29:13:39:3F:9C:02:BF:03:D0:72:82
            X509v3 Basic Constraints: critical
                CA:TRUE
            X509v3 Key Usage: critical
                Digital Signature, Certificate Sign, CRL Sign
    Signature Algorithm: sha256WithRSAEncryption
    Signature Value:
        67:30:fa:a3:31:88:24:86:e7:79:e6:cb:86:db:8e:ad:af:1f:
        6b:97:b3:a1:3d:3f:db:ad:1a:75:14:7c:56:0c:54:ba:41:d1:
        00:b8:67:2b:d4:43:d0:1b:f4:19:15:b1:9f:78:1d:f6:b5:a1:
        6d:89:53:ad:2f:e6:0c:48:d8:4c:7b:06:2a:09:c0:6d:46:2d:
        6b:3b:09:91:25:78:31:45:c6:fa:69:65:84:ec:ac:97:2c:87:
        d1:d2:f1:58:ca:94:f1:a3:01:21:e7:d1:6c:bb:07:7f:20:09:
        49:23:cd:af:b4:4b:84:d1:69:64:ec:d1:8b:97:fc:72:a9:fb:
        a1:3f:b8:df:c5:a1:7c:5f:7c:79:30:91:21:ff:66:2e:ce:f0:
        59:06:0a:fa:b7:4d:58:25:ec:4d:b9:71:da:bc:95:3d:96:39:
        bb:50:d3:17:a2:e6:64:57:40:a6:65:9c:c3:38:31:bb:02:24:
        fc:38:b2:66:45:6f:d2:6c:09:bd:86:8b:61:e2:4d:2c:50:7d:
        ac:ac:aa:88:16:eb:da:9b:ca:d3:3b:26:89:f2:f8:63:f4:6f:
        56:5b:75:86:1b:21:05:4c:0f:78:f9:f7:e2:66:9d:5f:db:a4:
        07:2f:1b:53:a0:65:cc:3b:e8:60:97:13:94:aa:56:d2:c9:1b:
        c8:7a:d1:f0:0e:15:1d:7f:e1:86:30:6e:18:24:46:db:cb:34:
        62:aa:18:76:eb:c7:a6:3a:8e:e3:c1:07:73:c5:63:4a:66:9f:
        39:d1:da:e1:78:c6:c1:07:18:6f:00:e7:27:85:c6:d6:b9:35:
        62:6a:90:61:9d:11:a5:b6:63:e3:3a:74:79:f6:21:56:fb:89:
        5a:8b:94:7c:77:69:b7:af:e1:86:09:a2:1a:44:52:b9:fb:6b:
        3f:08:d7:f3:a5:0e:0c:d4:a0:d1:40:83:6e:63:46:9a:62:a8:
        92:5b:dd:24:ef:d4:a7:4d:1d:af:b6:d2:b7:46:68:4f:cd:77:
        be:82:58:d5:13:53:66:fc:7e:ab:dc:c1:16:bb:58:2d:73:ec:
        15:cb:32:ef:b5:49:83:cf:fd:05:87:5f:42:7d:7b:6c:19:24:
        0d:78:ed:01:2a:f3:60:ac:b5:97:43:13:4a:46:17:37:d3:7b:
        53:34:a0:5e:11:79:c3:da:0b:69:0d:7b:4c:a0:85:66:11:d1:
        f5:15:7f:a5:43:49:1f:90:da:ff:8a:98:2c:5e:98:54:cf:41:
        b7:27:14:4a:29:e8:d1:af:0a:3b:64:8d:d8:42:13:10:4f:f2:
        1e:23:75:d1:60:a0:23:e0:d1:73:bb:34:85:89:9d:86:ab:07:
        a1:08:1d:cc:7f:4e:3a:ed
-----BEGIN CERTIFICATE-----
MIIF/TCCA+WgAwIBAgIBCjANBgkqhkiG9w0BAQsFADCBkzELMAkGA1UEBhMCRlIx
DzANBgNVBAgMBkZyYW5jZTERMA8GA1UECgwIU3lzdGVyZWwxNjA0BgNVBAMMLVMy
T1BDIENlbnR1cnkgQ2VydGlmaWNhdGUgQXV0aG9yaXR5IGZvciBUZXN0czEoMCYG
CSqGSIb3DQEJARYZczJvcGMtc3VwcG9ydEBzeXN0ZXJlbC5mcjAgFw0yNTAxMjMx
NDE5MTdaGA8yMTI0MTIzMDE0MTkxN1owgYgxCzAJBgNVBAYTAkZSMQ8wDQYDVQQI
DAZGcmFuY2UxGDAWBgNVBAcMD0FpeC1lbi1Qcm92ZW5jZTERMA8GA1UECgwIU3lz
dGVyZWwxOzA5BgNVBAMMMlMyT1BDIERlbW8gSW50ZXJtZWRpYXRlIENsaWVudCBB
dXRob3JpdHkgZm9yIFRlc3RzMIICIjANBgkqhkiG9w0BAQEFAAOCAg8AMIICCgKC
AgEAzE8fnkyEo4SsTZ+x5doQD6B2aft7EfABx4V9QXVPtIQGo1O0ttBZLlgr02Hl
tG8NSznStB26QIYSdJtfL7CpnaDeUjILSxZy+PCmpOT7TR0ZFfU2Rl58nqK0aDyi
f1Vz2V5OY3HkTUbFNM8ul926S7knG3py+Sxy/rFlJ+1Ymv8LYy2FK4BZ9mkmHHa+
FZX27ewKZrRYm578iWKiwzQCNzZXPKcmrG7Z4qYaJgtgHpnn9m1xxCxhB/hKYTAK
WaRqO4bZMkCSjTJla4uL5nDboTqO4pILj7+tOZBdzt1J5AKLd8i4nnrhkTwICaq0
gdOccOTDcvOeou1UBcXv3uon0jayEROmqF2OydBWwLEwQhB0PDOAmQgSpHwwWwNB
Bm5Ap0qS6arVQGJAY4paQ+JIZoGByNHC8zaHDtpLNFa0BqawiXbn9fAuiGWkixaR
FVr2SSxcyMeBKIth5m2p1Fc5U6yCi120ZUZznRQpu7BpBup/nO5HumaPm6Tq1Ch/
sv2iVr4sct9Ss/r3fRgt4bJ0y+daMRG54Z/SC+IDJkdkvk6U5R1zIr1IPoq3TbQY
YLBclIfw2vS12XFgRBNsvLkwC5hh/VdIT+L1P8JSnV/zPg6AYWCGI/7h5aFWyBjh
AxOIaJ9stIEqknlVm56zrVn6Gj0cuwRIJsJQ8RMw55CR0pkCAwEAAaNjMGEwHQYD
VR0OBBYEFFbyYzFsIOs/D3lJWHfvg16svNRqMB8GA1UdIwQYMBaAFHpGy9IvMKT/
ZykTOT+cAr8D0HKCMA8GA1UdEwEB/wQFMAMBAf8wDgYDVR0PAQH/BAQDAgGGMA0G
CSqGSIb3DQEBCwUAA4ICAQBnMPqjMYgkhud55suG246trx9rl7OhPT/brRp1FHxW
DFS6QdEAuGcr1EPQG/QZFbGfeB32taFtiVOtL+YMSNhMewYqCcBtRi1rOwmRJXgx
Rcb6aWWE7KyXLIfR0vFYypTxowEh59Fsuwd/IAlJI82vtEuE0Wlk7NGLl/xyqfuh
P7jfxaF8X3x5MJEh/2YuzvBZBgr6t01YJexNuXHavJU9ljm7UNMXouZkV0CmZZzD
ODG7AiT8OLJmRW/SbAm9hoth4k0sUH2srKqIFuvam8rTOyaJ8vhj9G9WW3WGGyEF
TA94+ffiZp1f26QHLxtToGXMO+hglxOUqlbSyRvIetHwDhUdf+GGMG4YJEbbyzRi
qhh268emOo7jwQdzxWNKZp850drheMbBBxhvAOcnhcbWuTViapBhnRGltmPjOnR5
9iFW+4lai5R8d2m3r+GGCaIaRFK5+2s/CNfzpQ4M1KDRQINuY0aaYqiSW90k79Sn
TR2vttK3RmhPzXe+gljVE1Nm/H6r3MEWu1gtc+wVyzLvtUmDz/0Fh19CfXtsGSQN
eO0BKvNgrLWXQxNKRhc303tTNKBeEXnD2gtpDXtMoIVmEdH1FX+lQ0kfkNr/ipgs
XphUz0G3JxRKKejRrwo7ZI3YQhMQT/IeI3XRYKAj4NFzuzSFiZ2GqwehCB3Mf046
7Q==
-----END CERTIFICATE-----
